                                      1 ;--------------------------------------------------------
                                      2 ; File Created by SDCC : free open source ISO C Compiler 
                                      3 ; Version 4.4.0 #14620 (MINGW64)
                                      4 ;--------------------------------------------------------
                                      5 	.module tarp
                                      6 	.optsdcc -mz80
                                      7 	
                                      8 ;--------------------------------------------------------
                                      9 ; Public variables in this module
                                     10 ;--------------------------------------------------------
                                     11 	.globl _pressKey
                                     12 	.globl _main
                                     13 	.globl _SetSpriteVisible
                                     14 	.globl _PUTSPRITE
                                     15 	.globl _SetSpritesZoom
                                     16 	.globl _SetSpritesSize
                                     17 	.globl _ClearSprites
                                     18 	.globl _CopyToVRAM
                                     19 	.globl _FillVRAM
                                     20 	.globl _VPOKE
                                     21 	.globl _COLOR
                                     22 	.globl _SCREEN
                                     23 	.globl _STRIG
                                     24 	.globl _STICK
                                     25 	.globl _GetKeyMatrix
                                     26 	.globl _FillRAM
                                     27 	.globl _POKE
                                     28 	.globl _PEEK
                                     29 	.globl _HELP_TXTADDR
                                     30 	.globl __isDrumKitB
                                     31 	.globl __cursor_pos
                                     32 	.globl _SEED
                                     33 	.globl _envelope_list
                                     34 	.globl _patternB
                                     35 	.globl _patternA
                                     36 	.globl __pattern
                                     37 	.globl __playPatternNumber
                                     38 	.globl _AYREGS
                                     39 	.globl __DrumKit
                                     40 	.globl __Drum
                                     41 	.globl __toneAmp
                                     42 	.globl __env_step
                                     43 	.globl __DrumEnabled
                                     44 	.globl __ToneEnabled
                                     45 	.globl __transpose
                                     46 	.globl __newENDstep
                                     47 	.globl __ENDstep
                                     48 	.globl __last_step
                                     49 	.globl __pattern_step
                                     50 	.globl __songSpeedStep
                                     51 	.globl __songSpeed
                                     52 	.globl __playerStatus
                                     53 	.globl __playerHardware
                                     54 	.globl _VDP_type
                                     55 	.globl _xvalues
                                     56 	.globl _yvalues
                                     57 	.globl _vaddr_cursor
                                     58 	.globl _drumcolor
                                     59 	.globl _enve_loop
                                     60 	.globl _enve_data
                                     61 	.globl _app_version
                                     62 	.globl _app_author
                                     63 	.globl _app_name
                                     64 	.globl _APPCODE
                                     65 	.globl _FXwipe2theMiddle
                                     66 	.globl _logoScreen
                                     67 	.globl _WorkWin
                                     68 	.globl _Help
                                     69 	.globl _checkMSX
                                     70 	.globl _initGUI
                                     71 	.globl _ShowSequenceCursor
                                     72 	.globl _SetPatternLenght
                                     73 	.globl _PlaySomething
                                     74 	.globl _invertDrumChannel
                                     75 	.globl _invertToneChannel
                                     76 	.globl _initWaveEnvelopes
                                     77 	.globl _initPatternsData
                                     78 	.globl _PlayerInit
                                     79 	.globl _PlayerDecode
                                     80 	.globl _PlayAY
                                     81 	.globl _SetMixer
                                     82 	.globl _SetDrumKit
                                     83 	.globl _Silence
                                     84 	.globl _Play
                                     85 	.globl _Stop
                                     86 	.globl _Rnd
                                     87 	.globl _ChangePattern
                                     88 	.globl _SetPattern
                                     89 	.globl _CopyPattern
                                     90 	.globl _ShowPatternRadioButton
                                     91 	.globl _genDrumPattern
                                     92 	.globl _genTonePattern
                                     93 	.globl _ShowPattern
                                     94 	.globl _ShowDrumPattern
                                     95 	.globl _ShowTonePattern
                                     96 	.globl _upOctave
                                     97 	.globl _downOctave
                                     98 	.globl _showOctave
                                     99 	.globl _showABmix
                                    100 	.globl _showABoffset
                                    101 	.globl _TransposeUp
                                    102 	.globl _TransposeDown
                                    103 	.globl _getFreq
                                    104 	.globl _GetVAddressByPosition
                                    105 	.globl _VPRINT
                                    106 	.globl _VPokeString
                                    107 	.globl _VPrintNum
                                    108 	.globl _num2Dec16
                                    109 	.globl _GUI_switcher
                                    110 	.globl _showEnv
                                    111 	.globl _showSpeaker
                                    112 	.globl _initHelpText
                                    113 	.globl _showHelpText
                                    114 	.globl _showScrollbar
                                    115 	.globl _showLogoScreen
                                    116 	.globl _setTileset
                                    117 	.globl _setSprites
                                    118 	.globl _showMainScr
                                    119 	.globl _showHelpScr
                                    120 	.globl _SetPalette
                                    121 ;--------------------------------------------------------
                                    122 ; special function registers
                                    123 ;--------------------------------------------------------
                                    124 ;--------------------------------------------------------
                                    125 ; ram data
                                    126 ;--------------------------------------------------------
                                    127 	.area _DATA
      000000                        128 _VDP_type::
      000000                        129 	.ds 1
      000001                        130 __playerHardware::
      000001                        131 	.ds 1
      000002                        132 __playerStatus::
      000002                        133 	.ds 1
      000003                        134 __songSpeed::
      000003                        135 	.ds 1
      000004                        136 __songSpeedStep::
      000004                        137 	.ds 1
      000005                        138 __pattern_step::
      000005                        139 	.ds 1
      000006                        140 __last_step::
      000006                        141 	.ds 1
      000007                        142 __ENDstep::
      000007                        143 	.ds 1
      000008                        144 __newENDstep::
      000008                        145 	.ds 1
      000009                        146 __transpose::
      000009                        147 	.ds 1
      00000A                        148 __ToneEnabled::
      00000A                        149 	.ds 1
      00000B                        150 __DrumEnabled::
      00000B                        151 	.ds 1
      00000C                        152 __env_step::
      00000C                        153 	.ds 1
      00000D                        154 __toneAmp::
      00000D                        155 	.ds 1
      00000E                        156 __Drum::
      00000E                        157 	.ds 2
      000010                        158 __DrumKit::
      000010                        159 	.ds 24
      000028                        160 _AYREGS::
      000028                        161 	.ds 14
      000036                        162 __playPatternNumber::
      000036                        163 	.ds 1
      000037                        164 __pattern::
      000037                        165 	.ds 2
      000039                        166 _patternA::
      000039                        167 	.ds 37
      00005E                        168 _patternB::
      00005E                        169 	.ds 37
      000083                        170 _envelope_list::
      000083                        171 	.ds 136
      00010B                        172 _SEED::
      00010B                        173 	.ds 1
      00010C                        174 __cursor_pos::
      00010C                        175 	.ds 1
      00010D                        176 __isDrumKitB::
      00010D                        177 	.ds 1
      00010E                        178 _HELP_TXTADDR::
      00010E                        179 	.ds 1073
                                    180 ;--------------------------------------------------------
                                    181 ; ram data
                                    182 ;--------------------------------------------------------
                                    183 	.area _INITIALIZED
                                    184 ;--------------------------------------------------------
                                    185 ; absolute external ram data
                                    186 ;--------------------------------------------------------
                                    187 	.area _DABS (ABS)
                                    188 ;--------------------------------------------------------
                                    189 ; global & static initialisations
                                    190 ;--------------------------------------------------------
                                    191 	.area _HOME
                                    192 	.area _GSINIT
                                    193 	.area _GSFINAL
                                    194 	.area _GSINIT
                                    195 ;--------------------------------------------------------
                                    196 ; Home
                                    197 ;--------------------------------------------------------
                                    198 	.area _HOME
                                    199 	.area _HOME
                                    200 ;--------------------------------------------------------
                                    201 ; code
                                    202 ;--------------------------------------------------------
                                    203 	.area _CODE
                                    204 ;src\tarp.c:345: void main(void) {
                                    205 ;	---------------------------------
                                    206 ; Function main
                                    207 ; ---------------------------------
      000000                        208 _main::
                                    209 ;src\tarp.c:347: checkMSX();
      000000 CDrD0r0B         [17]  210 	call	_checkMSX
                                    211 ;src\tarp.c:349: _playPatternNumber = PATTERN_A;
      000003 21r36r00         [10]  212 	ld	hl, #__playPatternNumber
      000006 36 00            [10]  213 	ld	(hl), #0x00
                                    214 ;src\tarp.c:351: COLOR(15,1,1);  
      000008 3E 01            [ 7]  215 	ld	a, #0x01
      00000A F5               [11]  216 	push	af
      00000B 33               [ 6]  217 	inc	sp
      00000C 2E 01            [ 7]  218 	ld	l, #0x01
                                    219 ;	spillPairReg hl
                                    220 ;	spillPairReg hl
      00000E 3E 0F            [ 7]  221 	ld	a, #0x0f
      000010 CDr00r00         [17]  222 	call	_COLOR
                                    223 ;src\tarp.c:352: SCREEN(2);  
      000013 3E 02            [ 7]  224 	ld	a, #0x02
      000015 CDr00r00         [17]  225 	call	_SCREEN
                                    226 ;src\tarp.c:354: POKE(CLIKSW,0);
      000018 AF               [ 4]  227 	xor	a, a
      000019 F5               [11]  228 	push	af
      00001A 33               [ 6]  229 	inc	sp
      00001B 21 DB F3         [10]  230 	ld	hl, #0xf3db
      00001E CDr00r00         [17]  231 	call	_POKE
                                    232 ;src\tarp.c:356: initWaveEnvelopes();
      000021 CDr21r0D         [17]  233 	call	_initWaveEnvelopes
                                    234 ;src\tarp.c:357: initPatternsData();
      000024 CDr87r0D         [17]  235 	call	_initPatternsData
                                    236 ;src\tarp.c:359: initHelpText();
      000027 CDr61r17         [17]  237 	call	_initHelpText
                                    238 ;src\tarp.c:361: logoScreen();
      00002A CDr0Ar02         [17]  239 	call	_logoScreen
                                    240 ;src\tarp.c:364: FXwipe2theMiddle(); //screen transition
      00002D CDr94r01         [17]  241 	call	_FXwipe2theMiddle
                                    242 ;src\tarp.c:368: WorkWin();
                                    243 ;src\tarp.c:369: }
      000030 C3rC3r02         [10]  244 	jp	_WorkWin
      000033                        245 _APPCODE:
      000033 4D 56 30 30 36 31      246 	.ascii "MV0061"
      000039 00                     247 	.db 0x00
      00003A                        248 _app_name:
      00003A 54 48 45 20 41 4C 41   249 	.ascii "THE ALAN RANDOMS PROJECT"
             4E 20 52 41 4E 44 4F
             4D 53 20 50 52 4F 4A
             45 43 54
      000052 00                     250 	.db 0x00
      000053                        251 _app_author:
      000053 4D 56 41 43 37 2F 33   252 	.ascii "MVAC7/303BCN"
             30 33 42 43 4E
      00005F 00                     253 	.db 0x00
      000060                        254 _app_version:
      000060 31 2E 31               255 	.ascii "1.1"
      000063 00                     256 	.db 0x00
      000064                        257 _enve_data:
      000064 0E                     258 	.db #0x0e	; 14
      000065 0D                     259 	.db #0x0d	; 13
      000066 0C                     260 	.db #0x0c	; 12
      000067 0B                     261 	.db #0x0b	; 11
      000068 0A                     262 	.db #0x0a	; 10
      000069 09                     263 	.db #0x09	; 9
      00006A 08                     264 	.db #0x08	; 8
      00006B 07                     265 	.db #0x07	; 7
      00006C 06                     266 	.db #0x06	; 6
      00006D 05                     267 	.db #0x05	; 5
      00006E 04                     268 	.db #0x04	; 4
      00006F 03                     269 	.db #0x03	; 3
      000070 02                     270 	.db #0x02	; 2
      000071 01                     271 	.db #0x01	; 1
      000072 00                     272 	.db #0x00	; 0
      000073 00                     273 	.db #0x00	; 0
      000074 00                     274 	.db #0x00	; 0
      000075 01                     275 	.db #0x01	; 1
      000076 02                     276 	.db #0x02	; 2
      000077 03                     277 	.db #0x03	; 3
      000078 04                     278 	.db #0x04	; 4
      000079 05                     279 	.db #0x05	; 5
      00007A 06                     280 	.db #0x06	; 6
      00007B 07                     281 	.db #0x07	; 7
      00007C 08                     282 	.db #0x08	; 8
      00007D 09                     283 	.db #0x09	; 9
      00007E 0A                     284 	.db #0x0a	; 10
      00007F 0B                     285 	.db #0x0b	; 11
      000080 0C                     286 	.db #0x0c	; 12
      000081 0D                     287 	.db #0x0d	; 13
      000082 0E                     288 	.db #0x0e	; 14
      000083 0E                     289 	.db #0x0e	; 14
      000084 0E                     290 	.db #0x0e	; 14
      000085 0C                     291 	.db #0x0c	; 12
      000086 0A                     292 	.db #0x0a	; 10
      000087 08                     293 	.db #0x08	; 8
      000088 06                     294 	.db #0x06	; 6
      000089 04                     295 	.db #0x04	; 4
      00008A 02                     296 	.db #0x02	; 2
      00008B 01                     297 	.db #0x01	; 1
      00008C 00                     298 	.db #0x00	; 0
      00008D 01                     299 	.db #0x01	; 1
      00008E 02                     300 	.db #0x02	; 2
      00008F 04                     301 	.db #0x04	; 4
      000090 06                     302 	.db #0x06	; 6
      000091 08                     303 	.db #0x08	; 8
      000092 0A                     304 	.db #0x0a	; 10
      000093 0C                     305 	.db #0x0c	; 12
      000094 00                     306 	.db #0x00	; 0
      000095 01                     307 	.db #0x01	; 1
      000096 02                     308 	.db #0x02	; 2
      000097 04                     309 	.db #0x04	; 4
      000098 06                     310 	.db #0x06	; 6
      000099 08                     311 	.db #0x08	; 8
      00009A 0A                     312 	.db #0x0a	; 10
      00009B 0C                     313 	.db #0x0c	; 12
      00009C 0E                     314 	.db #0x0e	; 14
      00009D 0C                     315 	.db #0x0c	; 12
      00009E 0A                     316 	.db #0x0a	; 10
      00009F 08                     317 	.db #0x08	; 8
      0000A0 06                     318 	.db #0x06	; 6
      0000A1 04                     319 	.db #0x04	; 4
      0000A2 02                     320 	.db #0x02	; 2
      0000A3 01                     321 	.db #0x01	; 1
      0000A4 0E                     322 	.db #0x0e	; 14
      0000A5 0E                     323 	.db #0x0e	; 14
      0000A6 0E                     324 	.db #0x0e	; 14
      0000A7 0E                     325 	.db #0x0e	; 14
      0000A8 0E                     326 	.db #0x0e	; 14
      0000A9 0E                     327 	.db #0x0e	; 14
      0000AA 0E                     328 	.db #0x0e	; 14
      0000AB 0E                     329 	.db #0x0e	; 14
      0000AC 04                     330 	.db #0x04	; 4
      0000AD 04                     331 	.db #0x04	; 4
      0000AE 04                     332 	.db #0x04	; 4
      0000AF 04                     333 	.db #0x04	; 4
      0000B0 04                     334 	.db #0x04	; 4
      0000B1 04                     335 	.db #0x04	; 4
      0000B2 04                     336 	.db #0x04	; 4
      0000B3 04                     337 	.db #0x04	; 4
      0000B4 07                     338 	.db #0x07	; 7
      0000B5 09                     339 	.db #0x09	; 9
      0000B6 0C                     340 	.db #0x0c	; 12
      0000B7 0D                     341 	.db #0x0d	; 13
      0000B8 0D                     342 	.db #0x0d	; 13
      0000B9 0D                     343 	.db #0x0d	; 13
      0000BA 0B                     344 	.db #0x0b	; 11
      0000BB 08                     345 	.db #0x08	; 8
      0000BC 05                     346 	.db #0x05	; 5
      0000BD 02                     347 	.db #0x02	; 2
      0000BE 00                     348 	.db #0x00	; 0
      0000BF 00                     349 	.db #0x00	; 0
      0000C0 00                     350 	.db #0x00	; 0
      0000C1 01                     351 	.db #0x01	; 1
      0000C2 04                     352 	.db #0x04	; 4
      0000C3 06                     353 	.db #0x06	; 6
      0000C4 0E                     354 	.db #0x0e	; 14
      0000C5 0D                     355 	.db #0x0d	; 13
      0000C6 0D                     356 	.db #0x0d	; 13
      0000C7 0C                     357 	.db #0x0c	; 12
      0000C8 0B                     358 	.db #0x0b	; 11
      0000C9 0A                     359 	.db #0x0a	; 10
      0000CA 09                     360 	.db #0x09	; 9
      0000CB 08                     361 	.db #0x08	; 8
      0000CC 06                     362 	.db #0x06	; 6
      0000CD 05                     363 	.db #0x05	; 5
      0000CE 03                     364 	.db #0x03	; 3
      0000CF 02                     365 	.db #0x02	; 2
      0000D0 01                     366 	.db #0x01	; 1
      0000D1 00                     367 	.db #0x00	; 0
      0000D2 00                     368 	.db #0x00	; 0
      0000D3 00                     369 	.db #0x00	; 0
      0000D4 0E                     370 	.db #0x0e	; 14
      0000D5 0D                     371 	.db #0x0d	; 13
      0000D6 0C                     372 	.db #0x0c	; 12
      0000D7 0B                     373 	.db #0x0b	; 11
      0000D8 0A                     374 	.db #0x0a	; 10
      0000D9 09                     375 	.db #0x09	; 9
      0000DA 09                     376 	.db #0x09	; 9
      0000DB 09                     377 	.db #0x09	; 9
      0000DC 09                     378 	.db #0x09	; 9
      0000DD 09                     379 	.db #0x09	; 9
      0000DE 09                     380 	.db #0x09	; 9
      0000DF 09                     381 	.db #0x09	; 9
      0000E0 08                     382 	.db #0x08	; 8
      0000E1 06                     383 	.db #0x06	; 6
      0000E2 04                     384 	.db #0x04	; 4
      0000E3 02                     385 	.db #0x02	; 2
      0000E4                        386 _enve_loop:
      0000E4 00                     387 	.db #0x00	; 0
      0000E5 00                     388 	.db #0x00	; 0
      0000E6 01                     389 	.db #0x01	; 1
      0000E7 01                     390 	.db #0x01	; 1
      0000E8 00                     391 	.db #0x00	; 0
      0000E9 00                     392 	.db #0x00	; 0
      0000EA 00                     393 	.db #0x00	; 0
      0000EB 00                     394 	.db #0x00	; 0
      0000EC                        395 _drumcolor:
      0000EC 04                     396 	.db #0x04	; 4
      0000ED 0C                     397 	.db #0x0c	; 12
      0000EE 08                     398 	.db #0x08	; 8
      0000EF 07                     399 	.db #0x07	; 7
      0000F0                        400 _vaddr_cursor:
      0000F0 21 18                  401 	.dw #0x1821
      0000F2 41 18                  402 	.dw #0x1841
      0000F4 61 18                  403 	.dw #0x1861
      0000F6 81 18                  404 	.dw #0x1881
      0000F8 A1 18                  405 	.dw #0x18a1
      0000FA C1 18                  406 	.dw #0x18c1
      0000FC 01 19                  407 	.dw #0x1901
      0000FE 21 19                  408 	.dw #0x1921
      000100 41 19                  409 	.dw #0x1941
      000102 81 19                  410 	.dw #0x1981
      000104 A1 19                  411 	.dw #0x19a1
      000106 C1 19                  412 	.dw #0x19c1
      000108 E1 19                  413 	.dw #0x19e1
      00010A 01 1A                  414 	.dw #0x1a01
      00010C 21 1A                  415 	.dw #0x1a21
      00010E 61 1A                  416 	.dw #0x1a61
      000110 81 1A                  417 	.dw #0x1a81
      000112 C1 1A                  418 	.dw #0x1ac1
      000114                        419 _yvalues:
      000114 48                     420 	.db #0x48	; 72	'H'
      000115 41                     421 	.db #0x41	; 65	'A'
      000116 3B                     422 	.db #0x3b	; 59
      000117 35                     423 	.db #0x35	; 53	'5'
      000118 2F                     424 	.db #0x2f	; 47
      000119 29                     425 	.db #0x29	; 41
      00011A 23                     426 	.db #0x23	; 35
      00011B 1E                     427 	.db #0x1e	; 30
      00011C 1A                     428 	.db #0x1a	; 26
      00011D 15                     429 	.db #0x15	; 21
      00011E 12                     430 	.db #0x12	; 18
      00011F 0F                     431 	.db #0x0f	; 15
      000120 0C                     432 	.db #0x0c	; 12
      000121 0A                     433 	.db #0x0a	; 10
      000122 08                     434 	.db #0x08	; 8
      000123 08                     435 	.db #0x08	; 8
      000124 08                     436 	.db #0x08	; 8
      000125 08                     437 	.db #0x08	; 8
      000126 09                     438 	.db #0x09	; 9
      000127 0B                     439 	.db #0x0b	; 11
      000128 0D                     440 	.db #0x0d	; 13
      000129 10                     441 	.db #0x10	; 16
      00012A 14                     442 	.db #0x14	; 20
      00012B 18                     443 	.db #0x18	; 24
      00012C 1C                     444 	.db #0x1c	; 28
      00012D 21                     445 	.db #0x21	; 33
      00012E 26                     446 	.db #0x26	; 38
      00012F 2C                     447 	.db #0x2c	; 44
      000130 32                     448 	.db #0x32	; 50	'2'
      000131 38                     449 	.db #0x38	; 56	'8'
      000132 3E                     450 	.db #0x3e	; 62
      000133 44                     451 	.db #0x44	; 68	'D'
      000134 4B                     452 	.db #0x4b	; 75	'K'
      000135 51                     453 	.db #0x51	; 81	'Q'
      000136 57                     454 	.db #0x57	; 87	'W'
      000137 5D                     455 	.db #0x5d	; 93
      000138 63                     456 	.db #0x63	; 99	'c'
      000139 69                     457 	.db #0x69	; 105	'i'
      00013A 6E                     458 	.db #0x6e	; 110	'n'
      00013B 73                     459 	.db #0x73	; 115	's'
      00013C 77                     460 	.db #0x77	; 119	'w'
      00013D 7B                     461 	.db #0x7b	; 123
      00013E 7F                     462 	.db #0x7f	; 127
      00013F 82                     463 	.db #0x82	; 130
      000140 84                     464 	.db #0x84	; 132
      000141 86                     465 	.db #0x86	; 134
      000142 87                     466 	.db #0x87	; 135
      000143 87                     467 	.db #0x87	; 135
      000144 87                     468 	.db #0x87	; 135
      000145 87                     469 	.db #0x87	; 135
      000146 85                     470 	.db #0x85	; 133
      000147 83                     471 	.db #0x83	; 131
      000148 80                     472 	.db #0x80	; 128
      000149 7D                     473 	.db #0x7d	; 125
      00014A 7A                     474 	.db #0x7a	; 122	'z'
      00014B 75                     475 	.db #0x75	; 117	'u'
      00014C 71                     476 	.db #0x71	; 113	'q'
      00014D 6C                     477 	.db #0x6c	; 108	'l'
      00014E 66                     478 	.db #0x66	; 102	'f'
      00014F 60                     479 	.db #0x60	; 96
      000150 5A                     480 	.db #0x5a	; 90	'Z'
      000151 54                     481 	.db #0x54	; 84	'T'
      000152 4E                     482 	.db #0x4e	; 78	'N'
      000153 48                     483 	.db #0x48	; 72	'H'
      000154                        484 _xvalues:
      000154 60                     485 	.db #0x60	; 96
      000155 60                     486 	.db #0x60	; 96
      000156 61                     487 	.db #0x61	; 97	'a'
      000157 62                     488 	.db #0x62	; 98	'b'
      000158 65                     489 	.db #0x65	; 101	'e'
      000159 67                     490 	.db #0x67	; 103	'g'
      00015A 6B                     491 	.db #0x6b	; 107	'k'
      00015B 6E                     492 	.db #0x6e	; 110	'n'
      00015C 73                     493 	.db #0x73	; 115	's'
      00015D 78                     494 	.db #0x78	; 120	'x'
      00015E 7D                     495 	.db #0x7d	; 125
      00015F 82                     496 	.db #0x82	; 130
      000160 88                     497 	.db #0x88	; 136
      000161 8E                     498 	.db #0x8e	; 142
      000162 94                     499 	.db #0x94	; 148
      000163 9B                     500 	.db #0x9b	; 155
      000164 A1                     501 	.db #0xa1	; 161
      000165 A7                     502 	.db #0xa7	; 167
      000166 AE                     503 	.db #0xae	; 174
      000167 B4                     504 	.db #0xb4	; 180
      000168 BA                     505 	.db #0xba	; 186
      000169 C0                     506 	.db #0xc0	; 192
      00016A C5                     507 	.db #0xc5	; 197
      00016B CA                     508 	.db #0xca	; 202
      00016C CE                     509 	.db #0xce	; 206
      00016D D3                     510 	.db #0xd3	; 211
      00016E D6                     511 	.db #0xd6	; 214
      00016F D9                     512 	.db #0xd9	; 217
      000170 DC                     513 	.db #0xdc	; 220
      000171 DE                     514 	.db #0xde	; 222
      000172 DF                     515 	.db #0xdf	; 223
      000173 DF                     516 	.db #0xdf	; 223
      000174 DF                     517 	.db #0xdf	; 223
      000175 DF                     518 	.db #0xdf	; 223
      000176 DE                     519 	.db #0xde	; 222
      000177 DC                     520 	.db #0xdc	; 220
      000178 D9                     521 	.db #0xd9	; 217
      000179 D6                     522 	.db #0xd6	; 214
      00017A D3                     523 	.db #0xd3	; 211
      00017B CE                     524 	.db #0xce	; 206
      00017C CA                     525 	.db #0xca	; 202
      00017D C5                     526 	.db #0xc5	; 197
      00017E C0                     527 	.db #0xc0	; 192
      00017F BA                     528 	.db #0xba	; 186
      000180 B4                     529 	.db #0xb4	; 180
      000181 AE                     530 	.db #0xae	; 174
      000182 A7                     531 	.db #0xa7	; 167
      000183 A1                     532 	.db #0xa1	; 161
      000184 9B                     533 	.db #0x9b	; 155
      000185 94                     534 	.db #0x94	; 148
      000186 8E                     535 	.db #0x8e	; 142
      000187 88                     536 	.db #0x88	; 136
      000188 82                     537 	.db #0x82	; 130
      000189 7D                     538 	.db #0x7d	; 125
      00018A 78                     539 	.db #0x78	; 120	'x'
      00018B 73                     540 	.db #0x73	; 115	's'
      00018C 6E                     541 	.db #0x6e	; 110	'n'
      00018D 6B                     542 	.db #0x6b	; 107	'k'
      00018E 67                     543 	.db #0x67	; 103	'g'
      00018F 65                     544 	.db #0x65	; 101	'e'
      000190 62                     545 	.db #0x62	; 98	'b'
      000191 61                     546 	.db #0x61	; 97	'a'
      000192 60                     547 	.db #0x60	; 96
      000193 60                     548 	.db #0x60	; 96
                                    549 ;src\tarp.c:373: void FXwipe2theMiddle(void)
                                    550 ;	---------------------------------
                                    551 ; Function FXwipe2theMiddle
                                    552 ; ---------------------------------
      000194                        553 _FXwipe2theMiddle::
                                    554 ;src\tarp.c:378: HALT;
      000194 76               [ 4]  555 	halt	
                                    556 ;src\tarp.c:379: ClearSprites();
      000195 CDr00r00         [17]  557 	call	_ClearSprites
                                    558 ;src\tarp.c:381: FillVRAM(BASE11+0x7F8, 8, 0x11);	//clear bank A tile 0 
      000198 3E 11            [ 7]  559 	ld	a, #0x11
      00019A F5               [11]  560 	push	af
      00019B 33               [ 6]  561 	inc	sp
      00019C 11 08 00         [10]  562 	ld	de, #0x0008
      00019F 21 F8 27         [10]  563 	ld	hl, #0x27f8
      0001A2 CDr00r00         [17]  564 	call	_FillVRAM
                                    565 ;src\tarp.c:382: FillVRAM(BASE11+0x0FF8, 8, 0x11);	//clear bank B tile 0
      0001A5 3E 11            [ 7]  566 	ld	a, #0x11
      0001A7 F5               [11]  567 	push	af
      0001A8 33               [ 6]  568 	inc	sp
      0001A9 11 08 00         [10]  569 	ld	de, #0x0008
      0001AC 21 F8 2F         [10]  570 	ld	hl, #0x2ff8
      0001AF CDr00r00         [17]  571 	call	_FillVRAM
                                    572 ;src\tarp.c:383: FillVRAM(BASE11+0x17F8, 8, 0x11);	//clear bank C tile 0
      0001B2 3E 11            [ 7]  573 	ld	a, #0x11
      0001B4 F5               [11]  574 	push	af
      0001B5 33               [ 6]  575 	inc	sp
      0001B6 11 08 00         [10]  576 	ld	de, #0x0008
      0001B9 21 F8 37         [10]  577 	ld	hl, #0x37f8
      0001BC CDr00r00         [17]  578 	call	_FillVRAM
                                    579 ;src\tarp.c:385: for (x=0;x<16;x++)
      0001BF 0E 00            [ 7]  580 	ld	c, #0x00
                                    581 ;src\tarp.c:387: for (y=0;y<24;y++)
      0001C1                        582 00109$:
      0001C1 06 00            [ 7]  583 	ld	b, #0x00
      0001C3                        584 00103$:
                                    585 ;src\tarp.c:389: VPOKE(BASE10+(y*32)+x,255);
      0001C3 68               [ 4]  586 	ld	l, b
                                    587 ;	spillPairReg hl
                                    588 ;	spillPairReg hl
      0001C4 26 00            [ 7]  589 	ld	h, #0x00
                                    590 ;	spillPairReg hl
                                    591 ;	spillPairReg hl
      0001C6 29               [11]  592 	add	hl, hl
      0001C7 29               [11]  593 	add	hl, hl
      0001C8 29               [11]  594 	add	hl, hl
      0001C9 29               [11]  595 	add	hl, hl
      0001CA 29               [11]  596 	add	hl, hl
      0001CB 11 00 18         [10]  597 	ld	de, #0x1800
      0001CE 19               [11]  598 	add	hl, de
      0001CF 79               [ 4]  599 	ld	a, c
      0001D0 5F               [ 4]  600 	ld	e, a
      0001D1 07               [ 4]  601 	rlca
      0001D2 9F               [ 4]  602 	sbc	a, a
      0001D3 57               [ 4]  603 	ld	d, a
      0001D4 E5               [11]  604 	push	hl
      0001D5 FD E1            [14]  605 	pop	iy
      0001D7 FD 19            [15]  606 	add	iy, de
      0001D9 E5               [11]  607 	push	hl
      0001DA C5               [11]  608 	push	bc
      0001DB D5               [11]  609 	push	de
      0001DC 3E FF            [ 7]  610 	ld	a, #0xff
      0001DE F5               [11]  611 	push	af
      0001DF 33               [ 6]  612 	inc	sp
      0001E0 FD E5            [15]  613 	push	iy
      0001E2 E1               [10]  614 	pop	hl
      0001E3 CDr00r00         [17]  615 	call	_VPOKE
      0001E6 D1               [10]  616 	pop	de
      0001E7 C1               [10]  617 	pop	bc
      0001E8 E1               [10]  618 	pop	hl
                                    619 ;src\tarp.c:390: VPOKE(BASE10+(y*32)+(31-x),255);    
      0001E9 3E 1F            [ 7]  620 	ld	a, #0x1f
      0001EB 93               [ 4]  621 	sub	a, e
      0001EC 5F               [ 4]  622 	ld	e, a
      0001ED 9F               [ 4]  623 	sbc	a, a
      0001EE 92               [ 4]  624 	sub	a, d
      0001EF 57               [ 4]  625 	ld	d, a
      0001F0 19               [11]  626 	add	hl, de
      0001F1 C5               [11]  627 	push	bc
      0001F2 3E FF            [ 7]  628 	ld	a, #0xff
      0001F4 F5               [11]  629 	push	af
      0001F5 33               [ 6]  630 	inc	sp
      0001F6 CDr00r00         [17]  631 	call	_VPOKE
      0001F9 C1               [10]  632 	pop	bc
                                    633 ;src\tarp.c:387: for (y=0;y<24;y++)
      0001FA 04               [ 4]  634 	inc	b
      0001FB 78               [ 4]  635 	ld	a, b
      0001FC D6 18            [ 7]  636 	sub	a, #0x18
      0001FE 38 C3            [12]  637 	jr	C, 00103$
                                    638 ;src\tarp.c:392: HALT;
      000200 76               [ 4]  639 	halt	
                                    640 ;src\tarp.c:385: for (x=0;x<16;x++)
      000201 0C               [ 4]  641 	inc	c
      000202 79               [ 4]  642 	ld	a, c
      000203 EE 80            [ 7]  643 	xor	a, #0x80
      000205 D6 90            [ 7]  644 	sub	a, #0x90
      000207 38 B8            [12]  645 	jr	C, 00109$
                                    646 ;src\tarp.c:394: }
      000209 C9               [10]  647 	ret
                                    648 ;src\tarp.c:397: void logoScreen(void)
                                    649 ;	---------------------------------
                                    650 ; Function logoScreen
                                    651 ; ---------------------------------
      00020A                        652 _logoScreen::
                                    653 ;src\tarp.c:401: SetSpritesSize(1);
      00020A 3E 01            [ 7]  654 	ld	a, #0x01
      00020C CDr00r00         [17]  655 	call	_SetSpritesSize
                                    656 ;src\tarp.c:404: showLogoScreen();  
      00020F CDr6Cr1B         [17]  657 	call	_showLogoScreen
                                    658 ;src\tarp.c:407: PUTSPRITE(0,74,58,12,0);
      000212 AF               [ 4]  659 	xor	a, a
      000213 67               [ 4]  660 	ld	h, a
      000214 2E 0C            [ 7]  661 	ld	l, #0x0c
      000216 E5               [11]  662 	push	hl
      000217 3E 3A            [ 7]  663 	ld	a, #0x3a
      000219 F5               [11]  664 	push	af
      00021A 33               [ 6]  665 	inc	sp
      00021B 2E 4A            [ 7]  666 	ld	l, #0x4a
                                    667 ;	spillPairReg hl
                                    668 ;	spillPairReg hl
      00021D AF               [ 4]  669 	xor	a, a
      00021E CDr00r00         [17]  670 	call	_PUTSPRITE
                                    671 ;src\tarp.c:408: PUTSPRITE(1,73,74,12,1);    
      000221 21 0C 01         [10]  672 	ld	hl, #0x10c
      000224 E5               [11]  673 	push	hl
      000225 3E 4A            [ 7]  674 	ld	a, #0x4a
      000227 F5               [11]  675 	push	af
      000228 33               [ 6]  676 	inc	sp
      000229 2E 49            [ 7]  677 	ld	l, #0x49
                                    678 ;	spillPairReg hl
                                    679 ;	spillPairReg hl
      00022B 3E 01            [ 7]  680 	ld	a, #0x01
      00022D CDr00r00         [17]  681 	call	_PUTSPRITE
                                    682 ;src\tarp.c:409: PUTSPRITE(2,96,57,12,2);     
      000230 21 0C 02         [10]  683 	ld	hl, #0x20c
      000233 E5               [11]  684 	push	hl
      000234 3E 39            [ 7]  685 	ld	a, #0x39
      000236 F5               [11]  686 	push	af
      000237 33               [ 6]  687 	inc	sp
      000238 2E 60            [ 7]  688 	ld	l, #0x60
                                    689 ;	spillPairReg hl
                                    690 ;	spillPairReg hl
      00023A 3E 02            [ 7]  691 	ld	a, #0x02
      00023C CDr00r00         [17]  692 	call	_PUTSPRITE
                                    693 ;src\tarp.c:410: PUTSPRITE(3,95,73,12,3);
      00023F 21 0C 03         [10]  694 	ld	hl, #0x30c
      000242 E5               [11]  695 	push	hl
      000243 3E 49            [ 7]  696 	ld	a, #0x49
      000245 F5               [11]  697 	push	af
      000246 33               [ 6]  698 	inc	sp
      000247 2E 5F            [ 7]  699 	ld	l, #0x5f
                                    700 ;	spillPairReg hl
                                    701 ;	spillPairReg hl
      000249 3E 03            [ 7]  702 	ld	a, #0x03
      00024B CDr00r00         [17]  703 	call	_PUTSPRITE
                                    704 ;src\tarp.c:411: PUTSPRITE(4,80,64,2,4);
      00024E 21 02 04         [10]  705 	ld	hl, #0x402
      000251 E5               [11]  706 	push	hl
      000252 3E 40            [ 7]  707 	ld	a, #0x40
      000254 F5               [11]  708 	push	af
      000255 33               [ 6]  709 	inc	sp
      000256 2E 50            [ 7]  710 	ld	l, #0x50
                                    711 ;	spillPairReg hl
                                    712 ;	spillPairReg hl
      000258 3E 04            [ 7]  713 	ld	a, #0x04
      00025A CDr00r00         [17]  714 	call	_PUTSPRITE
                                    715 ;src\tarp.c:412: PUTSPRITE(5,102,62,2,4);
      00025D 21 02 04         [10]  716 	ld	hl, #0x402
      000260 E5               [11]  717 	push	hl
      000261 3E 3E            [ 7]  718 	ld	a, #0x3e
      000263 F5               [11]  719 	push	af
      000264 33               [ 6]  720 	inc	sp
      000265 2E 66            [ 7]  721 	ld	l, #0x66
                                    722 ;	spillPairReg hl
                                    723 ;	spillPairReg hl
      000267 3E 05            [ 7]  724 	ld	a, #0x05
      000269 CDr00r00         [17]  725 	call	_PUTSPRITE
                                    726 ;src\tarp.c:415: if (VDP_type>0) SetPalette(0);  
      00026C 3Ar00r00         [13]  727 	ld	a, (_VDP_type+0)
      00026F B7               [ 4]  728 	or	a, a
      000270 28 04            [12]  729 	jr	Z, 00124$
      000272 AF               [ 4]  730 	xor	a, a
      000273 CDr4Er2E         [17]  731 	call	_SetPalette
                                    732 ;src\tarp.c:417: while(timec-->0)
      000276                        733 00124$:
      000276 01 BC 02         [10]  734 	ld	bc, #0x02bc
      000279                        735 00113$:
      000279 AF               [ 4]  736 	xor	a, a
      00027A B9               [ 4]  737 	cp	a, c
      00027B 98               [ 4]  738 	sbc	a, b
      00027C E2r81r02         [10]  739 	jp	PO, 00168$
      00027F EE 80            [ 7]  740 	xor	a, #0x80
      000281                        741 00168$:
      000281 F0               [11]  742 	ret	P
      000282 0B               [ 6]  743 	dec	bc
                                    744 ;src\tarp.c:419: HALT;
      000283 76               [ 4]  745 	halt	
                                    746 ;src\tarp.c:420: if (!(GetKeyMatrix(7)&Bit2)) break; // ESC
      000284 C5               [11]  747 	push	bc
      000285 3E 07            [ 7]  748 	ld	a, #0x07
      000287 CDr00r00         [17]  749 	call	_GetKeyMatrix
      00028A C1               [10]  750 	pop	bc
      00028B CB 57            [ 8]  751 	bit	2, a
      00028D C8               [11]  752 	ret	Z
                                    753 ;src\tarp.c:421: if (!(GetKeyMatrix(7)&Bit7)) break; // RETURN
      00028E C5               [11]  754 	push	bc
      00028F 3E 07            [ 7]  755 	ld	a, #0x07
      000291 CDr00r00         [17]  756 	call	_GetKeyMatrix
      000294 C1               [10]  757 	pop	bc
      000295 07               [ 4]  758 	rlca
      000296 D0               [11]  759 	ret	NC
                                    760 ;src\tarp.c:422: if (!(GetKeyMatrix(8)&Bit0)) break; // SPACE 
      000297 C5               [11]  761 	push	bc
      000298 3E 08            [ 7]  762 	ld	a, #0x08
      00029A CDr00r00         [17]  763 	call	_GetKeyMatrix
      00029D C1               [10]  764 	pop	bc
      00029E 0F               [ 4]  765 	rrca
      00029F D0               [11]  766 	ret	NC
                                    767 ;src\tarp.c:423: if (STRIG(1)>0) break; //button 1, joy A
      0002A0 C5               [11]  768 	push	bc
      0002A1 3E 01            [ 7]  769 	ld	a, #0x01
      0002A3 CDr00r00         [17]  770 	call	_STRIG
      0002A6 5F               [ 4]  771 	ld	e, a
      0002A7 C1               [10]  772 	pop	bc
      0002A8 AF               [ 4]  773 	xor	a, a
      0002A9 93               [ 4]  774 	sub	a, e
      0002AA E2rAFr02         [10]  775 	jp	PO, 00172$
      0002AD EE 80            [ 7]  776 	xor	a, #0x80
      0002AF                        777 00172$:
      0002AF F8               [11]  778 	ret	M
                                    779 ;src\tarp.c:424: if (STRIG(2)>0) break; //button 1, joy B    
      0002B0 C5               [11]  780 	push	bc
      0002B1 3E 02            [ 7]  781 	ld	a, #0x02
      0002B3 CDr00r00         [17]  782 	call	_STRIG
      0002B6 5F               [ 4]  783 	ld	e, a
      0002B7 C1               [10]  784 	pop	bc
      0002B8 AF               [ 4]  785 	xor	a, a
      0002B9 93               [ 4]  786 	sub	a, e
      0002BA E2rBFr02         [10]  787 	jp	PO, 00173$
      0002BD EE 80            [ 7]  788 	xor	a, #0x80
      0002BF                        789 00173$:
      0002BF F2r79r02         [10]  790 	jp	P, 00113$
                                    791 ;src\tarp.c:427: }
      0002C2 C9               [10]  792 	ret
                                    793 ;src\tarp.c:432: void WorkWin(void)
                                    794 ;	---------------------------------
                                    795 ; Function WorkWin
                                    796 ; ---------------------------------
      0002C3                        797 _WorkWin::
      0002C3 DD E5            [15]  798 	push	ix
      0002C5 DD 21 00 00      [14]  799 	ld	ix,#0
      0002C9 DD 39            [15]  800 	add	ix,sp
      0002CB 21 EE FF         [10]  801 	ld	hl, #-18
      0002CE 39               [11]  802 	add	hl, sp
      0002CF F9               [ 6]  803 	ld	sp, hl
                                    804 ;src\tarp.c:436: boolean keyB0pressed=false;
      0002D0 DD 36 EE 00      [19]  805 	ld	-18 (ix), #0x00
                                    806 ;src\tarp.c:437: boolean keyB2pressed=false;
      0002D4 DD 36 EF 00      [19]  807 	ld	-17 (ix), #0x00
                                    808 ;src\tarp.c:438: boolean keyB6pressed=false;
      0002D8 DD 36 F0 00      [19]  809 	ld	-16 (ix), #0x00
                                    810 ;src\tarp.c:439: boolean keyB7pressed=false;
      0002DC DD 36 F1 00      [19]  811 	ld	-15 (ix), #0x00
                                    812 ;src\tarp.c:440: boolean keyB8pressed=false;
      0002E0 DD 36 F2 00      [19]  813 	ld	-14 (ix), #0x00
                                    814 ;src\tarp.c:442: boolean joybool = false;
      0002E4 DD 36 F3 00      [19]  815 	ld	-13 (ix), #0x00
                                    816 ;src\tarp.c:443: boolean joytrigbool = false;
      0002E8 DD 36 F4 00      [19]  817 	ld	-12 (ix), #0x00
                                    818 ;src\tarp.c:448: char stone_step=0; //de 31
      0002EC DD 36 FC 00      [19]  819 	ld	-4 (ix), #0x00
                                    820 ;src\tarp.c:453: char sdrum_step=31;
      0002F0 DD 36 FD 1F      [19]  821 	ld	-3 (ix), #0x1f
                                    822 ;src\tarp.c:454: char sdrum_size=0;
      0002F4 DD 36 FE 00      [19]  823 	ld	-2 (ix), #0x00
                                    824 ;src\tarp.c:455: char sdrum_color=15;
      0002F8 DD 36 F5 0F      [19]  825 	ld	-11 (ix), #0x0f
                                    826 ;src\tarp.c:466: _cursor_pos=0;
      0002FC 21r0Cr01         [10]  827 	ld	hl, #__cursor_pos
      0002FF 36 00            [10]  828 	ld	(hl), #0x00
                                    829 ;src\tarp.c:469: SetSpritesSize(1);    //16x16
      000301 3E 01            [ 7]  830 	ld	a, #0x01
      000303 CDr00r00         [17]  831 	call	_SetSpritesSize
                                    832 ;src\tarp.c:470: SetSpritesZoom(true); //zoom
      000306 3E 01            [ 7]  833 	ld	a, #0x01
      000308 CDr00r00         [17]  834 	call	_SetSpritesZoom
                                    835 ;src\tarp.c:472: setSprites();
      00030B CDr4Br2B         [17]  836 	call	_setSprites
                                    837 ;src\tarp.c:478: setTileset();
      00030E CDrE2r22         [17]  838 	call	_setTileset
                                    839 ;src\tarp.c:480: if (VDP_type>0) SetPalette(1); //V9938 palette
      000311 3Ar00r00         [13]  840 	ld	a, (_VDP_type+0)
      000314 B7               [ 4]  841 	or	a, a
      000315 28 05            [12]  842 	jr	Z, 00102$
      000317 3E 01            [ 7]  843 	ld	a, #0x01
      000319 CDr4Er2E         [17]  844 	call	_SetPalette
      00031C                        845 00102$:
                                    846 ;src\tarp.c:482: showMainScr();
      00031C CDr0Cr2C         [17]  847 	call	_showMainScr
                                    848 ;src\tarp.c:485: _ToneEnabled=true;
      00031F 21r0Ar00         [10]  849 	ld	hl, #__ToneEnabled
      000322 36 01            [10]  850 	ld	(hl), #0x01
                                    851 ;src\tarp.c:486: _DrumEnabled=true;
      000324 21r0Br00         [10]  852 	ld	hl, #__DrumEnabled
      000327 36 01            [10]  853 	ld	(hl), #0x01
                                    854 ;src\tarp.c:489: _playerHardware=0; //select internal AY
      000329 21r01r00         [10]  855 	ld	hl, #__playerHardware
      00032C 36 00            [10]  856 	ld	(hl), #0x00
                                    857 ;src\tarp.c:490: _playerStatus=PLAYER_STOP;  
      00032E 21r02r00         [10]  858 	ld	hl, #__playerStatus
      000331 36 00            [10]  859 	ld	(hl), #0x00
                                    860 ;src\tarp.c:492: _isDrumKitB = false;
      000333 21r0Dr01         [10]  861 	ld	hl, #__isDrumKitB
      000336 36 00            [10]  862 	ld	(hl), #0x00
                                    863 ;src\tarp.c:494: SetDrumKit(_isDrumKitB);    
      000338 AF               [ 4]  864 	xor	a, a
      000339 CDr6Fr10         [17]  865 	call	_SetDrumKit
                                    866 ;src\tarp.c:496: PlayerInit();
      00033C CDrE5r0D         [17]  867 	call	_PlayerInit
                                    868 ;src\tarp.c:498: vumeterStep = _songSpeed;
      00033F 3Ar03r00         [13]  869 	ld	a, (__songSpeed+0)
      000342 DD 77 FF         [19]  870 	ld	-1 (ix), a
                                    871 ;src\tarp.c:501: SetMixer(0,true,false);  //noise off
      000345 AF               [ 4]  872 	xor	a, a
      000346 F5               [11]  873 	push	af
      000347 33               [ 6]  874 	inc	sp
      000348 2E 01            [ 7]  875 	ld	l, #0x01
                                    876 ;	spillPairReg hl
                                    877 ;	spillPairReg hl
      00034A AF               [ 4]  878 	xor	a, a
      00034B CDrFFr0F         [17]  879 	call	_SetMixer
                                    880 ;src\tarp.c:502: SetMixer(1,true,false);  //noise off
      00034E AF               [ 4]  881 	xor	a, a
      00034F F5               [11]  882 	push	af
      000350 33               [ 6]  883 	inc	sp
                                    884 ;	spillPairReg hl
                                    885 ;	spillPairReg hl
      000351 3E 01            [ 7]  886 	ld	a,#0x01
      000353 6F               [ 4]  887 	ld	l,a
      000354 CDrFFr0F         [17]  888 	call	_SetMixer
                                    889 ;src\tarp.c:505: initGUI();
      000357 CDrDAr0B         [17]  890 	call	_initGUI
                                    891 ;src\tarp.c:510: while(1)
      00035A                        892 00269$:
                                    893 ;src\tarp.c:512: HALT;
      00035A 76               [ 4]  894 	halt	
                                    895 ;src\tarp.c:513: PlayAY(); //Dump values from RAM buffer to PSG (AY)
      00035B CDrC6r0F         [17]  896 	call	_PlayAY
                                    897 ;src\tarp.c:517: if (_playerStatus==PLAYER_PLAY && _songSpeedStep==0) //control de tempo por ciclos de Vblank 
      00035E 3Ar02r00         [13]  898 	ld	a, (__playerStatus+0)
      000361 3D               [ 4]  899 	dec	a
      000362 20 59            [12]  900 	jr	NZ, 00108$
      000364 3Ar04r00         [13]  901 	ld	a, (__songSpeedStep+0)
      000367 B7               [ 4]  902 	or	a, a
      000368 20 53            [12]  903 	jr	NZ, 00108$
                                    904 ;src\tarp.c:519: ShowSequenceCursor();               
      00036A CDr49r0C         [17]  905 	call	_ShowSequenceCursor
                                    906 ;src\tarp.c:522: if(_DrumEnabled==true)
      00036D 21r0Br00         [10]  907 	ld	hl, #__DrumEnabled
      000370 CB 46            [12]  908 	bit	0, (hl)
      000372 28 49            [12]  909 	jr	Z, 00108$
                                    910 ;src\tarp.c:524: drum_type = _pattern->drum[_pattern_step];
      000374 2Ar37r00         [16]  911 	ld	hl, (__pattern)
      000377 DD 75 FA         [19]  912 	ld	-6 (ix), l
      00037A DD 74 FB         [19]  913 	ld	-5 (ix), h
      00037D DD 7E FA         [19]  914 	ld	a, -6 (ix)
      000380 C6 05            [ 7]  915 	add	a, #0x05
      000382 DD 77 F8         [19]  916 	ld	-8 (ix), a
      000385 DD 7E FB         [19]  917 	ld	a, -5 (ix)
      000388 CE 00            [ 7]  918 	adc	a, #0x00
      00038A DD 77 F9         [19]  919 	ld	-7 (ix), a
      00038D 3Ar05r00         [13]  920 	ld	a, (__pattern_step+0)
      000390 DD 77 FB         [19]  921 	ld	-5 (ix), a
      000393 DD 86 F8         [19]  922 	add	a, -8 (ix)
      000396 DD 77 FA         [19]  923 	ld	-6 (ix), a
      000399 3E 00            [ 7]  924 	ld	a, #0x00
      00039B DD 8E F9         [19]  925 	adc	a, -7 (ix)
      00039E DD 77 FB         [19]  926 	ld	-5 (ix), a
      0003A1 DD 6E FA         [19]  927 	ld	l, -6 (ix)
      0003A4 DD 66 FB         [19]  928 	ld	h, -5 (ix)
      0003A7 7E               [ 7]  929 	ld	a, (hl)
      0003A8 4F               [ 4]  930 	ld	c, a
                                    931 ;src\tarp.c:525: if(drum_type>0)
      0003A9 B7               [ 4]  932 	or	a, a
      0003AA 28 11            [12]  933 	jr	Z, 00108$
                                    934 ;src\tarp.c:527: sdrum_size=7;
      0003AC DD 36 FE 07      [19]  935 	ld	-2 (ix), #0x07
                                    936 ;src\tarp.c:528: sdrum_color=drumcolor[drum_type];
      0003B0 79               [ 4]  937 	ld	a, c
      0003B1 C6rEC            [ 7]  938 	add	a, #<(_drumcolor)
      0003B3 6F               [ 4]  939 	ld	l, a
                                    940 ;	spillPairReg hl
                                    941 ;	spillPairReg hl
      0003B4 3E 00            [ 7]  942 	ld	a, #0x00
      0003B6 CEs00            [ 7]  943 	adc	a, #>(_drumcolor)
      0003B8 67               [ 4]  944 	ld	h, a
                                    945 ;	spillPairReg hl
                                    946 ;	spillPairReg hl
      0003B9 7E               [ 7]  947 	ld	a, (hl)
      0003BA DD 77 F5         [19]  948 	ld	-11 (ix), a
      0003BD                        949 00108$:
                                    950 ;src\tarp.c:535: stone_size = AYREGS[8];
      0003BD 3Ar30r00         [13]  951 	ld	a, (#(_AYREGS + 8) + 0)
                                    952 ;src\tarp.c:536: stone_size = stone_size>>1;   // /2
      0003C0 CB 3F            [ 8]  953 	srl	a
                                    954 ;src\tarp.c:539: if (stone_size>0) stone_color = 15;
      0003C2 DD 77 FB         [19]  955 	ld	-5 (ix), a
      0003C5 B7               [ 4]  956 	or	a, a
      0003C6 28 04            [12]  957 	jr	Z, 00111$
      0003C8 16 0F            [ 7]  958 	ld	d, #0x0f
      0003CA 18 02            [12]  959 	jr	00112$
      0003CC                        960 00111$:
                                    961 ;src\tarp.c:540: else stone_color = 14;
      0003CC 16 0E            [ 7]  962 	ld	d, #0x0e
      0003CE                        963 00112$:
                                    964 ;src\tarp.c:542: PUTSPRITE(0,xvalues[stone_step],yvalues[stone_step],stone_color,stone_size);
      0003CE DD 7E FC         [19]  965 	ld	a, -4 (ix)
      0003D1 C6r14            [ 7]  966 	add	a, #<(_yvalues)
      0003D3 6F               [ 4]  967 	ld	l, a
                                    968 ;	spillPairReg hl
                                    969 ;	spillPairReg hl
      0003D4 3E 00            [ 7]  970 	ld	a, #0x00
      0003D6 CEs01            [ 7]  971 	adc	a, #>(_yvalues)
      0003D8 67               [ 4]  972 	ld	h, a
                                    973 ;	spillPairReg hl
                                    974 ;	spillPairReg hl
      0003D9 46               [ 7]  975 	ld	b, (hl)
      0003DA DD 7E FC         [19]  976 	ld	a, -4 (ix)
      0003DD C6r54            [ 7]  977 	add	a, #<(_xvalues)
      0003DF 6F               [ 4]  978 	ld	l, a
                                    979 ;	spillPairReg hl
                                    980 ;	spillPairReg hl
      0003E0 3E 00            [ 7]  981 	ld	a, #0x00
      0003E2 CEs01            [ 7]  982 	adc	a, #>(_xvalues)
      0003E4 67               [ 4]  983 	ld	h, a
      0003E5 6E               [ 7]  984 	ld	l, (hl)
                                    985 ;	spillPairReg hl
      0003E6 DD 7E FB         [19]  986 	ld	a, -5 (ix)
      0003E9 F5               [11]  987 	push	af
      0003EA 33               [ 6]  988 	inc	sp
      0003EB 58               [ 4]  989 	ld	e, b
      0003EC D5               [11]  990 	push	de
      0003ED AF               [ 4]  991 	xor	a, a
      0003EE CDr00r00         [17]  992 	call	_PUTSPRITE
                                    993 ;src\tarp.c:545: if (_DrumEnabled==false) sdrum_size=0;
      0003F1 21r0Br00         [10]  994 	ld	hl, #__DrumEnabled
      0003F4 CB 46            [12]  995 	bit	0, (hl)
      0003F6 20 04            [12]  996 	jr	NZ, 00114$
      0003F8 DD 36 FE 00      [19]  997 	ld	-2 (ix), #0x00
      0003FC                        998 00114$:
                                    999 ;src\tarp.c:547: if (sdrum_size==0) sdrum_color=drumcolor[0];
      0003FC DD 7E FE         [19] 1000 	ld	a, -2 (ix)
      0003FF B7               [ 4] 1001 	or	a, a
      000400 20 07            [12] 1002 	jr	NZ, 00116$
      000402 01rECr00         [10] 1003 	ld	bc, #_drumcolor+0
      000405 0A               [ 7] 1004 	ld	a, (bc)
      000406 DD 77 F5         [19] 1005 	ld	-11 (ix), a
      000409                       1006 00116$:
                                   1007 ;src\tarp.c:551: PUTSPRITE(1,xvalues[sdrum_step],yvalues[sdrum_step],sdrum_color,sdrum_size);
      000409 3Er14            [ 7] 1008 	ld	a, #<(_yvalues)
      00040B DD 86 FD         [19] 1009 	add	a, -3 (ix)
      00040E 6F               [ 4] 1010 	ld	l, a
                                   1011 ;	spillPairReg hl
                                   1012 ;	spillPairReg hl
      00040F 3Es01            [ 7] 1013 	ld	a, #>(_yvalues)
      000411 CE 00            [ 7] 1014 	adc	a, #0x00
      000413 67               [ 4] 1015 	ld	h, a
      000414 46               [ 7] 1016 	ld	b, (hl)
      000415 3Er54            [ 7] 1017 	ld	a, #<(_xvalues)
      000417 DD 86 FD         [19] 1018 	add	a, -3 (ix)
      00041A 6F               [ 4] 1019 	ld	l, a
                                   1020 ;	spillPairReg hl
                                   1021 ;	spillPairReg hl
      00041B 3Es01            [ 7] 1022 	ld	a, #>(_xvalues)
      00041D CE 00            [ 7] 1023 	adc	a, #0x00
      00041F 67               [ 4] 1024 	ld	h, a
      000420 6E               [ 7] 1025 	ld	l, (hl)
                                   1026 ;	spillPairReg hl
      000421 DD 56 FE         [19] 1027 	ld	d, -2 (ix)
      000424 DD 5E F5         [19] 1028 	ld	e, -11 (ix)
      000427 D5               [11] 1029 	push	de
      000428 C5               [11] 1030 	push	bc
      000429 33               [ 6] 1031 	inc	sp
      00042A 3E 01            [ 7] 1032 	ld	a, #0x01
      00042C CDr00r00         [17] 1033 	call	_PUTSPRITE
                                   1034 ;src\tarp.c:554: if (sdrum_size>0) sdrum_size--;
      00042F DD 7E FE         [19] 1035 	ld	a, -2 (ix)
      000432 B7               [ 4] 1036 	or	a, a
      000433 28 03            [12] 1037 	jr	Z, 00118$
      000435 DD 35 FE         [23] 1038 	dec	-2 (ix)
      000438                       1039 00118$:
                                   1040 ;src\tarp.c:556: if (vumeterStep>=_songSpeed-1)
      000438 3Ar03r00         [13] 1041 	ld	a, (__songSpeed+0)
      00043B 06 00            [ 7] 1042 	ld	b, #0x00
      00043D 4F               [ 4] 1043 	ld	c, a
      00043E 0B               [ 6] 1044 	dec	bc
      00043F DD 7E FF         [19] 1045 	ld	a, -1 (ix)
      000442 16 00            [ 7] 1046 	ld	d, #0x00
      000444 91               [ 4] 1047 	sub	a, c
      000445 7A               [ 4] 1048 	ld	a, d
      000446 98               [ 4] 1049 	sbc	a, b
      000447 E2r4Cr04         [10] 1050 	jp	PO, 00849$
      00044A EE 80            [ 7] 1051 	xor	a, #0x80
      00044C                       1052 00849$:
      00044C FAr71r04         [10] 1053 	jp	M, 00124$
                                   1054 ;src\tarp.c:558: vumeterStep=0;
      00044F DD 36 FF 00      [19] 1055 	ld	-1 (ix), #0x00
                                   1056 ;src\tarp.c:560: stone_step++;
      000453 DD 34 FC         [23] 1057 	inc	-4 (ix)
                                   1058 ;src\tarp.c:561: if (stone_step>63) stone_step=0;
      000456 3E 3F            [ 7] 1059 	ld	a, #0x3f
      000458 DD 96 FC         [19] 1060 	sub	a, -4 (ix)
      00045B 30 04            [12] 1061 	jr	NC, 00120$
      00045D DD 36 FC 00      [19] 1062 	ld	-4 (ix), #0x00
      000461                       1063 00120$:
                                   1064 ;src\tarp.c:562: sdrum_step++;
      000461 DD 34 FD         [23] 1065 	inc	-3 (ix)
                                   1066 ;src\tarp.c:563: if (sdrum_step>63) sdrum_step=0;
      000464 3E 3F            [ 7] 1067 	ld	a, #0x3f
      000466 DD 96 FD         [19] 1068 	sub	a, -3 (ix)
      000469 30 09            [12] 1069 	jr	NC, 00125$
      00046B DD 36 FD 00      [19] 1070 	ld	-3 (ix), #0x00
      00046F 18 03            [12] 1071 	jr	00125$
      000471                       1072 00124$:
                                   1073 ;src\tarp.c:564: }else vumeterStep++;
      000471 DD 34 FF         [23] 1074 	inc	-1 (ix)
      000474                       1075 00125$:
                                   1076 ;src\tarp.c:568: if (_playerStatus==PLAYER_PLAY) PlayerDecode();
      000474 3Ar02r00         [13] 1077 	ld	a, (__playerStatus+0)
      000477 3D               [ 4] 1078 	dec	a
      000478 20 03            [12] 1079 	jr	NZ, 00127$
      00047A CDr21r0E         [17] 1080 	call	_PlayerDecode
      00047D                       1081 00127$:
                                   1082 ;src\tarp.c:571: joyval=STICK(0);
      00047D AF               [ 4] 1083 	xor	a, a
      00047E CDr00r00         [17] 1084 	call	_STICK
                                   1085 ;src\tarp.c:572: if (joyval==0) joyval=STICK(1);
      000481 DD 77 F9         [19] 1086 	ld	-7 (ix), a
      000484 B7               [ 4] 1087 	or	a, a
      000485 20 08            [12] 1088 	jr	NZ, 00129$
      000487 3E 01            [ 7] 1089 	ld	a, #0x01
      000489 CDr00r00         [17] 1090 	call	_STICK
      00048C DD 77 F9         [19] 1091 	ld	-7 (ix), a
      00048F                       1092 00129$:
                                   1093 ;src\tarp.c:573: if (joyval==0) joyval=STICK(2);
      00048F DD 7E F9         [19] 1094 	ld	a, -7 (ix)
      000492 B7               [ 4] 1095 	or	a, a
      000493 20 08            [12] 1096 	jr	NZ, 00131$
      000495 3E 02            [ 7] 1097 	ld	a, #0x02
      000497 CDr00r00         [17] 1098 	call	_STICK
      00049A DD 77 F9         [19] 1099 	ld	-7 (ix), a
      00049D                       1100 00131$:
                                   1101 ;src\tarp.c:574: if (joyval>0)
      00049D DD 7E F9         [19] 1102 	ld	a, -7 (ix)
      0004A0 B7               [ 4] 1103 	or	a, a
      0004A1 CAr2Cr07         [10] 1104 	jp	Z, 00177$
                                   1105 ;src\tarp.c:576: if (joybool==false)
      0004A4 DD CB F3 46      [20] 1106 	bit	0, -13 (ix)
      0004A8 C2r30r07         [10] 1107 	jp	NZ, 00178$
                                   1108 ;src\tarp.c:578: joybool = true;
      0004AB DD 36 F3 01      [19] 1109 	ld	-13 (ix), #0x01
                                   1110 ;src\tarp.c:579: VPOKE(vaddr_cursor[_cursor_pos],32);       
      0004AF 3Ar0Cr01         [13] 1111 	ld	a, (__cursor_pos+0)
      0004B2 DD 77 FA         [19] 1112 	ld	-6 (ix), a
      0004B5 07               [ 4] 1113 	rlca
      0004B6 9F               [ 4] 1114 	sbc	a, a
      0004B7 DD 77 FB         [19] 1115 	ld	-5 (ix), a
      0004BA DD 7E FA         [19] 1116 	ld	a, -6 (ix)
      0004BD DD 77 F7         [19] 1117 	ld	-9 (ix), a
      0004C0 DD 7E FB         [19] 1118 	ld	a, -5 (ix)
      0004C3 DD 77 F8         [19] 1119 	ld	-8 (ix), a
      0004C6 DD CB F7 26      [23] 1120 	sla	-9 (ix)
      0004CA DD CB F8 16      [23] 1121 	rl	-8 (ix)
      0004CE 3ErF0            [ 7] 1122 	ld	a, #<(_vaddr_cursor)
      0004D0 DD 86 F7         [19] 1123 	add	a, -9 (ix)
      0004D3 DD 77 FA         [19] 1124 	ld	-6 (ix), a
      0004D6 3Es00            [ 7] 1125 	ld	a, #>(_vaddr_cursor)
      0004D8 DD 8E F8         [19] 1126 	adc	a, -8 (ix)
      0004DB DD 77 FB         [19] 1127 	ld	-5 (ix), a
      0004DE DD 6E FA         [19] 1128 	ld	l, -6 (ix)
      0004E1 DD 66 FB         [19] 1129 	ld	h, -5 (ix)
      0004E4 7E               [ 7] 1130 	ld	a, (hl)
      0004E5 DD 77 FA         [19] 1131 	ld	-6 (ix), a
      0004E8 23               [ 6] 1132 	inc	hl
      0004E9 7E               [ 7] 1133 	ld	a, (hl)
      0004EA DD 77 FB         [19] 1134 	ld	-5 (ix), a
      0004ED 3E 20            [ 7] 1135 	ld	a, #0x20
      0004EF F5               [11] 1136 	push	af
      0004F0 33               [ 6] 1137 	inc	sp
      0004F1 DD 6E FA         [19] 1138 	ld	l, -6 (ix)
                                   1139 ;	spillPairReg hl
                                   1140 ;	spillPairReg hl
      0004F4 DD 66 FB         [19] 1141 	ld	h, -5 (ix)
                                   1142 ;	spillPairReg hl
                                   1143 ;	spillPairReg hl
      0004F7 CDr00r00         [17] 1144 	call	_VPOKE
                                   1145 ;src\tarp.c:581: if(joyval==1) // arriba
      0004FA DD 7E F9         [19] 1146 	ld	a, -7 (ix)
      0004FD 3D               [ 4] 1147 	dec	a
      0004FE 20 12            [12] 1148 	jr	NZ, 00135$
                                   1149 ;src\tarp.c:583: _cursor_pos--;
      000500 FD 21r0Cr01      [14] 1150 	ld	iy, #__cursor_pos
      000504 FD 35 00         [23] 1151 	dec	0 (iy)
                                   1152 ;src\tarp.c:584: if(_cursor_pos<0) _cursor_pos=OPTIONS_SIZE; 
      000507 3Ar0Cr01         [13] 1153 	ld	a, (__cursor_pos+0)
      00050A CB 7F            [ 8] 1154 	bit	7, a
      00050C 28 04            [12] 1155 	jr	Z, 00135$
      00050E FD 36 00 11      [19] 1156 	ld	0 (iy), #0x11
      000512                       1157 00135$:
                                   1158 ;src\tarp.c:586: if(joyval==5) // abajo
      000512 DD 7E F9         [19] 1159 	ld	a, -7 (ix)
      000515 D6 05            [ 7] 1160 	sub	a, #0x05
      000517 20 19            [12] 1161 	jr	NZ, 00139$
                                   1162 ;src\tarp.c:588: _cursor_pos++;
      000519 FD 21r0Cr01      [14] 1163 	ld	iy, #__cursor_pos
      00051D FD 34 00         [23] 1164 	inc	0 (iy)
                                   1165 ;src\tarp.c:589: if(_cursor_pos>OPTIONS_SIZE) _cursor_pos=0;
      000520 3E 11            [ 7] 1166 	ld	a, #0x11
      000522 FD 96 00         [19] 1167 	sub	a, 0 (iy)
      000525 E2r2Ar05         [10] 1168 	jp	PO, 00857$
      000528 EE 80            [ 7] 1169 	xor	a, #0x80
      00052A                       1170 00857$:
      00052A F2r32r05         [10] 1171 	jp	P, 00139$
      00052D 21r0Cr01         [10] 1172 	ld	hl, #__cursor_pos
      000530 36 00            [10] 1173 	ld	(hl), #0x00
      000532                       1174 00139$:
                                   1175 ;src\tarp.c:591: if(joyval==3) // right
      000532 DD 7E F9         [19] 1176 	ld	a, -7 (ix)
      000535 D6 03            [ 7] 1177 	sub	a, #0x03
      000537 C2r09r06         [10] 1178 	jp	NZ,00156$
                                   1179 ;src\tarp.c:593: switch (_cursor_pos)   //{0x1841,0x1901,0x19A1,0x19C1,0x1A01,0x1A21,0x1A41,0x1A81,0x1AA1};
      00053A 3Ar0Cr01         [13] 1180 	ld	a,(__cursor_pos+0)
      00053D FE 03            [ 7] 1181 	cp	a,#0x03
      00053F 28 26            [12] 1182 	jr	Z, 00140$
      000541 FE 05            [ 7] 1183 	cp	a,#0x05
      000543 28 2D            [12] 1184 	jr	Z, 00141$
      000545 FE 08            [ 7] 1185 	cp	a,#0x08
      000547 28 46            [12] 1186 	jr	Z, 00144$
      000549 FE 0B            [ 7] 1187 	cp	a,#0x0b
      00054B 28 57            [12] 1188 	jr	Z, 00145$
      00054D FE 0C            [ 7] 1189 	cp	a,#0x0c
      00054F 28 5F            [12] 1190 	jr	Z, 00146$
      000551 FE 0D            [ 7] 1191 	cp	a,#0x0d
      000553 28 67            [12] 1192 	jr	Z, 00147$
      000555 FE 0E            [ 7] 1193 	cp	a,#0x0e
      000557 CArDFr05         [10] 1194 	jp	Z,00151$
      00055A FE 0F            [ 7] 1195 	cp	a,#0x0f
      00055C CAr01r06         [10] 1196 	jp	Z,00152$
      00055F D6 10            [ 7] 1197 	sub	a, #0x10
      000561 CAr06r06         [10] 1198 	jp	Z,00153$
      000564 C3r09r06         [10] 1199 	jp	00156$
                                   1200 ;src\tarp.c:595: case 3:    //set pattern B
      000567                       1201 00140$:
                                   1202 ;src\tarp.c:596: SetPattern(PATTERN_B);
      000567 3E 01            [ 7] 1203 	ld	a, #0x01
      000569 CDrA4r11         [17] 1204 	call	_SetPattern
                                   1205 ;src\tarp.c:597: ShowPattern();
      00056C CDr13r14         [17] 1206 	call	_ShowPattern
                                   1207 ;src\tarp.c:598: break;
      00056F C3r09r06         [10] 1208 	jp	00156$
                                   1209 ;src\tarp.c:600: case 5: //tempo
      000572                       1210 00141$:
                                   1211 ;src\tarp.c:601: if (_songSpeed<9) _songSpeed++;                
      000572 3Ar03r00         [13] 1212 	ld	a, (__songSpeed+0)
      000575 D6 09            [ 7] 1213 	sub	a, #0x09
      000577 30 04            [12] 1214 	jr	NC, 00143$
      000579 21r03r00         [10] 1215 	ld	hl, #__songSpeed
      00057C 34               [11] 1216 	inc	(hl)
      00057D                       1217 00143$:
                                   1218 ;src\tarp.c:602: VPrintNum(GUI_TEMPO_VADDR, _songSpeed, 1);
      00057D 3Ar03r00         [13] 1219 	ld	a, (__songSpeed+0)
      000580 5F               [ 4] 1220 	ld	e, a
      000581 16 00            [ 7] 1221 	ld	d, #0x00
      000583 3E 01            [ 7] 1222 	ld	a, #0x01
      000585 F5               [11] 1223 	push	af
      000586 33               [ 6] 1224 	inc	sp
      000587 21 C8 18         [10] 1225 	ld	hl, #0x18c8
      00058A CDr39r16         [17] 1226 	call	_VPrintNum
                                   1227 ;src\tarp.c:603: break;
      00058D 18 7A            [12] 1228 	jr	00156$
                                   1229 ;src\tarp.c:605: case 8: //Drum KIT Switcher
      00058F                       1230 00144$:
                                   1231 ;src\tarp.c:606: _isDrumKitB=true;
      00058F 21r0Dr01         [10] 1232 	ld	hl, #__isDrumKitB
                                   1233 ;src\tarp.c:607: SetDrumKit(_isDrumKitB);
      000592 3E 01            [ 7] 1234 	ld	a,#0x01
      000594 77               [ 7] 1235 	ld	(hl),a
      000595 CDr6Fr10         [17] 1236 	call	_SetDrumKit
                                   1237 ;src\tarp.c:608: GUI_switcher(GUI_DKIT_VADDR,true); 
      000598 3E 01            [ 7] 1238 	ld	a, #0x01
      00059A F5               [11] 1239 	push	af
      00059B 33               [ 6] 1240 	inc	sp
      00059C 21 49 19         [10] 1241 	ld	hl, #0x1949
      00059F CDrC1r16         [17] 1242 	call	_GUI_switcher
                                   1243 ;src\tarp.c:609: break;
      0005A2 18 65            [12] 1244 	jr	00156$
                                   1245 ;src\tarp.c:611: case 11: //A+B
      0005A4                       1246 00145$:
                                   1247 ;src\tarp.c:612: _pattern->AB_MIX=true;
      0005A4 2Ar37r00         [16] 1248 	ld	hl, (__pattern)
      0005A7 23               [ 6] 1249 	inc	hl
      0005A8 23               [ 6] 1250 	inc	hl
      0005A9 36 01            [10] 1251 	ld	(hl), #0x01
                                   1252 ;src\tarp.c:613: showABmix(); 
      0005AB CDrC6r14         [17] 1253 	call	_showABmix
                                   1254 ;src\tarp.c:614: break;
      0005AE 18 59            [12] 1255 	jr	00156$
                                   1256 ;src\tarp.c:616: case 12: //B offset
      0005B0                       1257 00146$:
                                   1258 ;src\tarp.c:617: _pattern->AB_offset++;              
      0005B0 2Ar37r00         [16] 1259 	ld	hl, (__pattern)
      0005B3 23               [ 6] 1260 	inc	hl
      0005B4 23               [ 6] 1261 	inc	hl
      0005B5 23               [ 6] 1262 	inc	hl
      0005B6 34               [11] 1263 	inc	(hl)
                                   1264 ;src\tarp.c:618: showABoffset(); 
      0005B7 CDrD5r14         [17] 1265 	call	_showABoffset
                                   1266 ;src\tarp.c:619: break;
      0005BA 18 4D            [12] 1267 	jr	00156$
                                   1268 ;src\tarp.c:621: case 13: //envelope wave
      0005BC                       1269 00147$:
                                   1270 ;src\tarp.c:622: if (_pattern->Envelope<7) _pattern->Envelope++;
      0005BC FD 2Ar37r00      [20] 1271 	ld	iy, (__pattern)
      0005C0 FD 7E 04         [19] 1272 	ld	a, 4 (iy)
      0005C3 D6 07            [ 7] 1273 	sub	a, #0x07
      0005C5 30 0A            [12] 1274 	jr	NC, 00149$
      0005C7 2Ar37r00         [16] 1275 	ld	hl, (__pattern)
      0005CA 01 04 00         [10] 1276 	ld	bc, #0x0004
      0005CD 09               [11] 1277 	add	hl, bc
      0005CE 34               [11] 1278 	inc	(hl)
      0005CF 18 09            [12] 1279 	jr	00150$
      0005D1                       1280 00149$:
                                   1281 ;src\tarp.c:623: else _pattern->Envelope=0;
      0005D1 2Ar37r00         [16] 1282 	ld	hl, (__pattern)
      0005D4 01 04 00         [10] 1283 	ld	bc, #0x0004
      0005D7 09               [11] 1284 	add	hl, bc
      0005D8 36 00            [10] 1285 	ld	(hl), #0x00
      0005DA                       1286 00150$:
                                   1287 ;src\tarp.c:624: showEnv(); 
      0005DA CDrFBr16         [17] 1288 	call	_showEnv
                                   1289 ;src\tarp.c:625: break;
      0005DD 18 2A            [12] 1290 	jr	00156$
                                   1291 ;src\tarp.c:627: case 14: //loop Switcher
      0005DF                       1292 00151$:
                                   1293 ;src\tarp.c:628: envelope_list[_pattern->Envelope].isLoop=true;
      0005DF 2Ar37r00         [16] 1294 	ld	hl, (__pattern)
      0005E2 11 04 00         [10] 1295 	ld	de, #0x0004
      0005E5 19               [11] 1296 	add	hl, de
      0005E6 4E               [ 7] 1297 	ld	c, (hl)
      0005E7 06 00            [ 7] 1298 	ld	b, #0x00
      0005E9 69               [ 4] 1299 	ld	l, c
      0005EA 60               [ 4] 1300 	ld	h, b
      0005EB 29               [11] 1301 	add	hl, hl
      0005EC 29               [11] 1302 	add	hl, hl
      0005ED 29               [11] 1303 	add	hl, hl
      0005EE 29               [11] 1304 	add	hl, hl
      0005EF 09               [11] 1305 	add	hl, bc
      0005F0 11r83r00         [10] 1306 	ld	de, #_envelope_list
      0005F3 19               [11] 1307 	add	hl, de
                                   1308 ;src\tarp.c:629: GUI_switcher(GUI_ENVLOOP_VADDR,true);
      0005F4 3E 01            [ 7] 1309 	ld	a,#0x01
      0005F6 77               [ 7] 1310 	ld	(hl),a
      0005F7 F5               [11] 1311 	push	af
      0005F8 33               [ 6] 1312 	inc	sp
      0005F9 21 29 1A         [10] 1313 	ld	hl, #0x1a29
      0005FC CDrC1r16         [17] 1314 	call	_GUI_switcher
                                   1315 ;src\tarp.c:630: break;
      0005FF 18 08            [12] 1316 	jr	00156$
                                   1317 ;src\tarp.c:632: case 15: // _octave +
      000601                       1318 00152$:
                                   1319 ;src\tarp.c:633: downOctave(); 
      000601 CDrA6r14         [17] 1320 	call	_downOctave
                                   1321 ;src\tarp.c:634: break;
      000604 18 03            [12] 1322 	jr	00156$
                                   1323 ;src\tarp.c:636: case 16:
      000606                       1324 00153$:
                                   1325 ;src\tarp.c:637: TransposeUp(); 
      000606 CDrE9r14         [17] 1326 	call	_TransposeUp
                                   1327 ;src\tarp.c:639: }//END switch
      000609                       1328 00156$:
                                   1329 ;src\tarp.c:642: if(joyval==7) // left
      000609 DD 7E F9         [19] 1330 	ld	a, -7 (ix)
      00060C D6 07            [ 7] 1331 	sub	a, #0x07
      00060E C2rDFr06         [10] 1332 	jp	NZ,00173$
                                   1333 ;src\tarp.c:644: switch (_cursor_pos) 
      000611 3Ar0Cr01         [13] 1334 	ld	a,(__cursor_pos+0)
      000614 FE 03            [ 7] 1335 	cp	a,#0x03
      000616 28 26            [12] 1336 	jr	Z, 00157$
      000618 FE 05            [ 7] 1337 	cp	a,#0x05
      00061A 28 2C            [12] 1338 	jr	Z, 00158$
      00061C FE 08            [ 7] 1339 	cp	a,#0x08
      00061E 28 48            [12] 1340 	jr	Z, 00161$
      000620 FE 0B            [ 7] 1341 	cp	a,#0x0b
      000622 28 58            [12] 1342 	jr	Z, 00162$
      000624 FE 0C            [ 7] 1343 	cp	a,#0x0c
      000626 28 60            [12] 1344 	jr	Z, 00163$
      000628 FE 0D            [ 7] 1345 	cp	a,#0x0d
      00062A 28 68            [12] 1346 	jr	Z, 00164$
      00062C FE 0E            [ 7] 1347 	cp	a,#0x0e
      00062E CArB6r06         [10] 1348 	jp	Z,00168$
      000631 FE 0F            [ 7] 1349 	cp	a,#0x0f
      000633 CArD7r06         [10] 1350 	jp	Z,00169$
      000636 D6 10            [ 7] 1351 	sub	a, #0x10
      000638 CArDCr06         [10] 1352 	jp	Z,00170$
      00063B C3rDFr06         [10] 1353 	jp	00173$
                                   1354 ;src\tarp.c:646: case 3:    //set pattern A
      00063E                       1355 00157$:
                                   1356 ;src\tarp.c:647: SetPattern(PATTERN_A);
      00063E AF               [ 4] 1357 	xor	a, a
      00063F CDrA4r11         [17] 1358 	call	_SetPattern
                                   1359 ;src\tarp.c:648: ShowPattern();
      000642 CDr13r14         [17] 1360 	call	_ShowPattern
                                   1361 ;src\tarp.c:649: break;
      000645 C3rDFr06         [10] 1362 	jp	00173$
                                   1363 ;src\tarp.c:651: case 5:
      000648                       1364 00158$:
                                   1365 ;src\tarp.c:652: if (_songSpeed>1) _songSpeed--;                
      000648 3E 01            [ 7] 1366 	ld	a, #0x01
      00064A FD 21r03r00      [14] 1367 	ld	iy, #__songSpeed
      00064E FD 96 00         [19] 1368 	sub	a, 0 (iy)
      000651 30 03            [12] 1369 	jr	NC, 00160$
      000653 FD 35 00         [23] 1370 	dec	0 (iy)
      000656                       1371 00160$:
                                   1372 ;src\tarp.c:653: VPrintNum(GUI_TEMPO_VADDR, _songSpeed, 1); 
      000656 3Ar03r00         [13] 1373 	ld	a, (__songSpeed+0)
      000659 5F               [ 4] 1374 	ld	e, a
      00065A 16 00            [ 7] 1375 	ld	d, #0x00
      00065C 3E 01            [ 7] 1376 	ld	a, #0x01
      00065E F5               [11] 1377 	push	af
      00065F 33               [ 6] 1378 	inc	sp
      000660 21 C8 18         [10] 1379 	ld	hl, #0x18c8
      000663 CDr39r16         [17] 1380 	call	_VPrintNum
                                   1381 ;src\tarp.c:654: break;
      000666 18 77            [12] 1382 	jr	00173$
                                   1383 ;src\tarp.c:656: case 8:
      000668                       1384 00161$:
                                   1385 ;src\tarp.c:657: _isDrumKitB=false;
      000668 21r0Dr01         [10] 1386 	ld	hl, #__isDrumKitB
      00066B 36 00            [10] 1387 	ld	(hl), #0x00
                                   1388 ;src\tarp.c:658: SetDrumKit(_isDrumKitB);
      00066D AF               [ 4] 1389 	xor	a, a
      00066E CDr6Fr10         [17] 1390 	call	_SetDrumKit
                                   1391 ;src\tarp.c:659: GUI_switcher(GUI_DKIT_VADDR,false); 
      000671 AF               [ 4] 1392 	xor	a, a
      000672 F5               [11] 1393 	push	af
      000673 33               [ 6] 1394 	inc	sp
      000674 21 49 19         [10] 1395 	ld	hl, #0x1949
      000677 CDrC1r16         [17] 1396 	call	_GUI_switcher
                                   1397 ;src\tarp.c:660: break;
      00067A 18 63            [12] 1398 	jr	00173$
                                   1399 ;src\tarp.c:662: case 11:
      00067C                       1400 00162$:
                                   1401 ;src\tarp.c:663: _pattern->AB_MIX=false;
      00067C 2Ar37r00         [16] 1402 	ld	hl, (__pattern)
      00067F 23               [ 6] 1403 	inc	hl
      000680 23               [ 6] 1404 	inc	hl
      000681 36 00            [10] 1405 	ld	(hl), #0x00
                                   1406 ;src\tarp.c:664: showABmix(); 
      000683 CDrC6r14         [17] 1407 	call	_showABmix
                                   1408 ;src\tarp.c:665: break;
      000686 18 57            [12] 1409 	jr	00173$
                                   1410 ;src\tarp.c:667: case 12:
      000688                       1411 00163$:
                                   1412 ;src\tarp.c:668: _pattern->AB_offset--;                
      000688 2Ar37r00         [16] 1413 	ld	hl, (__pattern)
      00068B 23               [ 6] 1414 	inc	hl
      00068C 23               [ 6] 1415 	inc	hl
      00068D 23               [ 6] 1416 	inc	hl
      00068E 35               [11] 1417 	dec	(hl)
                                   1418 ;src\tarp.c:669: showABoffset(); 
      00068F CDrD5r14         [17] 1419 	call	_showABoffset
                                   1420 ;src\tarp.c:670: break;
      000692 18 4B            [12] 1421 	jr	00173$
                                   1422 ;src\tarp.c:672: case 13:
      000694                       1423 00164$:
                                   1424 ;src\tarp.c:673: if (_pattern->Envelope>0) _pattern->Envelope--;
      000694 FD 2Ar37r00      [20] 1425 	ld	iy, (__pattern)
      000698 FD 7E 04         [19] 1426 	ld	a, 4 (iy)
      00069B B7               [ 4] 1427 	or	a, a
      00069C 28 0A            [12] 1428 	jr	Z, 00166$
      00069E 2Ar37r00         [16] 1429 	ld	hl, (__pattern)
      0006A1 01 04 00         [10] 1430 	ld	bc, #0x0004
      0006A4 09               [11] 1431 	add	hl, bc
      0006A5 35               [11] 1432 	dec	(hl)
      0006A6 18 09            [12] 1433 	jr	00167$
      0006A8                       1434 00166$:
                                   1435 ;src\tarp.c:674: else _pattern->Envelope=7;
      0006A8 2Ar37r00         [16] 1436 	ld	hl, (__pattern)
      0006AB 01 04 00         [10] 1437 	ld	bc, #0x0004
      0006AE 09               [11] 1438 	add	hl, bc
      0006AF 36 07            [10] 1439 	ld	(hl), #0x07
      0006B1                       1440 00167$:
                                   1441 ;src\tarp.c:675: showEnv(); 
      0006B1 CDrFBr16         [17] 1442 	call	_showEnv
                                   1443 ;src\tarp.c:676: break;
      0006B4 18 29            [12] 1444 	jr	00173$
                                   1445 ;src\tarp.c:678: case 14:
      0006B6                       1446 00168$:
                                   1447 ;src\tarp.c:679: envelope_list[_pattern->Envelope].isLoop=false;
      0006B6 01r83r00         [10] 1448 	ld	bc, #_envelope_list+0
      0006B9 FD 2Ar37r00      [20] 1449 	ld	iy, (__pattern)
      0006BD FD 5E 04         [19] 1450 	ld	e, 4 (iy)
      0006C0 16 00            [ 7] 1451 	ld	d, #0x00
      0006C2 6B               [ 4] 1452 	ld	l, e
      0006C3 62               [ 4] 1453 	ld	h, d
      0006C4 29               [11] 1454 	add	hl, hl
      0006C5 29               [11] 1455 	add	hl, hl
      0006C6 29               [11] 1456 	add	hl, hl
      0006C7 29               [11] 1457 	add	hl, hl
      0006C8 19               [11] 1458 	add	hl, de
      0006C9 09               [11] 1459 	add	hl, bc
      0006CA 36 00            [10] 1460 	ld	(hl), #0x00
                                   1461 ;src\tarp.c:680: GUI_switcher(GUI_ENVLOOP_VADDR,false); 
      0006CC AF               [ 4] 1462 	xor	a, a
      0006CD F5               [11] 1463 	push	af
      0006CE 33               [ 6] 1464 	inc	sp
      0006CF 21 29 1A         [10] 1465 	ld	hl, #0x1a29
      0006D2 CDrC1r16         [17] 1466 	call	_GUI_switcher
                                   1467 ;src\tarp.c:681: break;
      0006D5 18 08            [12] 1468 	jr	00173$
                                   1469 ;src\tarp.c:683: case 15: //_octave -
      0006D7                       1470 00169$:
                                   1471 ;src\tarp.c:684: upOctave();
      0006D7 CDr99r14         [17] 1472 	call	_upOctave
                                   1473 ;src\tarp.c:685: break;
      0006DA 18 03            [12] 1474 	jr	00173$
                                   1475 ;src\tarp.c:687: case 16:
      0006DC                       1476 00170$:
                                   1477 ;src\tarp.c:688: TransposeDown(); 
      0006DC CDr0Dr15         [17] 1478 	call	_TransposeDown
                                   1479 ;src\tarp.c:690: }//END switch
      0006DF                       1480 00173$:
                                   1481 ;src\tarp.c:692: VPOKE(vaddr_cursor[_cursor_pos],GUI_CURSOR);
      0006DF 3Ar0Cr01         [13] 1482 	ld	a, (__cursor_pos+0)
      0006E2 DD 77 FA         [19] 1483 	ld	-6 (ix), a
      0006E5 07               [ 4] 1484 	rlca
      0006E6 9F               [ 4] 1485 	sbc	a, a
      0006E7 DD 77 FB         [19] 1486 	ld	-5 (ix), a
      0006EA DD 7E FA         [19] 1487 	ld	a, -6 (ix)
      0006ED DD 77 F8         [19] 1488 	ld	-8 (ix), a
      0006F0 DD 7E FB         [19] 1489 	ld	a, -5 (ix)
      0006F3 DD 77 F9         [19] 1490 	ld	-7 (ix), a
      0006F6 DD CB F8 26      [23] 1491 	sla	-8 (ix)
      0006FA DD CB F9 16      [23] 1492 	rl	-7 (ix)
      0006FE 3ErF0            [ 7] 1493 	ld	a, #<(_vaddr_cursor)
      000700 DD 86 F8         [19] 1494 	add	a, -8 (ix)
      000703 DD 77 FA         [19] 1495 	ld	-6 (ix), a
      000706 3Es00            [ 7] 1496 	ld	a, #>(_vaddr_cursor)
      000708 DD 8E F9         [19] 1497 	adc	a, -7 (ix)
      00070B DD 77 FB         [19] 1498 	ld	-5 (ix), a
      00070E DD 6E FA         [19] 1499 	ld	l, -6 (ix)
      000711 DD 66 FB         [19] 1500 	ld	h, -5 (ix)
      000714 7E               [ 7] 1501 	ld	a, (hl)
      000715 DD 77 FA         [19] 1502 	ld	-6 (ix), a
      000718 23               [ 6] 1503 	inc	hl
      000719 7E               [ 7] 1504 	ld	a, (hl)
      00071A DD 77 FB         [19] 1505 	ld	-5 (ix), a
      00071D 3E 80            [ 7] 1506 	ld	a, #0x80
      00071F F5               [11] 1507 	push	af
      000720 33               [ 6] 1508 	inc	sp
      000721 DD 6E FA         [19] 1509 	ld	l, -6 (ix)
                                   1510 ;	spillPairReg hl
                                   1511 ;	spillPairReg hl
      000724 DD 66 FB         [19] 1512 	ld	h, -5 (ix)
                                   1513 ;	spillPairReg hl
                                   1514 ;	spillPairReg hl
      000727 CDr00r00         [17] 1515 	call	_VPOKE
      00072A 18 04            [12] 1516 	jr	00178$
      00072C                       1517 00177$:
                                   1518 ;src\tarp.c:694: }else joybool = false;
      00072C DD 36 F3 00      [19] 1519 	ld	-13 (ix), #0x00
      000730                       1520 00178$:
                                   1521 ;src\tarp.c:697: joytrig = STRIG(0);       
      000730 AF               [ 4] 1522 	xor	a, a
      000731 CDr00r00         [17] 1523 	call	_STRIG
                                   1524 ;src\tarp.c:698: if (joytrig==0) joytrig=STRIG(1);
      000734 DD 77 FB         [19] 1525 	ld	-5 (ix), a
      000737 B7               [ 4] 1526 	or	a, a
      000738 20 08            [12] 1527 	jr	NZ, 00180$
      00073A 3E 01            [ 7] 1528 	ld	a, #0x01
      00073C CDr00r00         [17] 1529 	call	_STRIG
      00073F DD 77 FB         [19] 1530 	ld	-5 (ix), a
      000742                       1531 00180$:
                                   1532 ;src\tarp.c:699: if (joytrig==0) joytrig=STRIG(2);
      000742 DD 7E FB         [19] 1533 	ld	a, -5 (ix)
      000745 B7               [ 4] 1534 	or	a, a
      000746 20 08            [12] 1535 	jr	NZ, 00182$
      000748 3E 02            [ 7] 1536 	ld	a, #0x02
      00074A CDr00r00         [17] 1537 	call	_STRIG
      00074D DD 77 FB         [19] 1538 	ld	-5 (ix), a
      000750                       1539 00182$:
                                   1540 ;src\tarp.c:700: if (joytrig>0)
      000750 DD 7E FB         [19] 1541 	ld	a, -5 (ix)
      000753 B7               [ 4] 1542 	or	a, a
      000754 CAr24r09         [10] 1543 	jp	Z, 00203$
                                   1544 ;src\tarp.c:702: if (joytrigbool==false)
      000757 DD CB F4 46      [20] 1545 	bit	0, -12 (ix)
      00075B C2r28r09         [10] 1546 	jp	NZ, 00204$
                                   1547 ;src\tarp.c:704: joytrigbool = true;
      00075E DD 36 F4 01      [19] 1548 	ld	-12 (ix), #0x01
                                   1549 ;src\tarp.c:706: switch (_cursor_pos) 
      000762 3Ar0Cr01         [13] 1550 	ld	a, (__cursor_pos+0)
      000765 CB 7F            [ 8] 1551 	bit	7, a
      000767 C2r28r09         [10] 1552 	jp	NZ, 00204$
      00076A 3E 11            [ 7] 1553 	ld	a, #0x11
      00076C 21r0Cr01         [10] 1554 	ld	hl, #__cursor_pos
      00076F 96               [ 7] 1555 	sub	a, (hl)
      000770 E2r75r07         [10] 1556 	jp	PO, 00881$
      000773 EE 80            [ 7] 1557 	xor	a, #0x80
      000775                       1558 00881$:
      000775 FAr28r09         [10] 1559 	jp	M, 00204$
      000778 FD 21r0Cr01      [14] 1560 	ld	iy, #__cursor_pos
      00077C FD 4E 00         [19] 1561 	ld	c, 0 (iy)
      00077F 06 00            [ 7] 1562 	ld	b, #0x00
      000781 21r88r07         [10] 1563 	ld	hl, #00882$
      000784 09               [11] 1564 	add	hl, bc
      000785 09               [11] 1565 	add	hl, bc
      000786 09               [11] 1566 	add	hl, bc
      000787 E9               [ 4] 1567 	jp	(hl)
      000788                       1568 00882$:
      000788 C3rBEr07         [10] 1569 	jp	00183$
      00078B C3rC4r07         [10] 1570 	jp	00184$
      00078E C3rCDr07         [10] 1571 	jp	00185$
      000791 C3rDFr07         [10] 1572 	jp	00189$
      000794 C3rE8r07         [10] 1573 	jp	00190$
      000797 C3r28r09         [10] 1574 	jp	00204$
      00079A C3rEEr07         [10] 1575 	jp	00191$
      00079D C3rF4r07         [10] 1576 	jp	00192$
      0007A0 C3rFAr07         [10] 1577 	jp	00193$
      0007A3 C3r28r08         [10] 1578 	jp	00194$
      0007A6 C3r2Er08         [10] 1579 	jp	00195$
      0007A9 C3r34r08         [10] 1580 	jp	00196$
      0007AC C3r28r09         [10] 1581 	jp	00204$
      0007AF C3r28r09         [10] 1582 	jp	00204$
      0007B2 C3r6Br08         [10] 1583 	jp	00197$
      0007B5 C3r28r09         [10] 1584 	jp	00204$
      0007B8 C3r28r09         [10] 1585 	jp	00204$
      0007BB C3r1Fr09         [10] 1586 	jp	00198$
                                   1587 ;src\tarp.c:708: case 0:    //audio on/off
      0007BE                       1588 00183$:
                                   1589 ;src\tarp.c:709: PlaySomething(); 
      0007BE CDrCAr0C         [17] 1590 	call	_PlaySomething
                                   1591 ;src\tarp.c:710: break;
      0007C1 C3r28r09         [10] 1592 	jp	00204$
                                   1593 ;src\tarp.c:712: case 1:    //random All
      0007C4                       1594 00184$:
                                   1595 ;src\tarp.c:713: genDrumPattern();
      0007C4 CDrA7r12         [17] 1596 	call	_genDrumPattern
                                   1597 ;src\tarp.c:714: genTonePattern(); 
      0007C7 CDr5Cr13         [17] 1598 	call	_genTonePattern
                                   1599 ;src\tarp.c:715: break;
      0007CA C3r28r09         [10] 1600 	jp	00204$
                                   1601 ;src\tarp.c:717: case 2:    //Play
      0007CD                       1602 00185$:
                                   1603 ;src\tarp.c:718: if(_playerStatus==PLAYER_STOP) Play();
      0007CD 3Ar02r00         [13] 1604 	ld	a, (__playerStatus+0)
      0007D0 B7               [ 4] 1605 	or	a, a
      0007D1 20 06            [12] 1606 	jr	NZ, 00187$
      0007D3 CDr38r11         [17] 1607 	call	_Play
      0007D6 C3r28r09         [10] 1608 	jp	00204$
      0007D9                       1609 00187$:
                                   1610 ;src\tarp.c:719: else Stop(); 
      0007D9 CDr56r11         [17] 1611 	call	_Stop
                                   1612 ;src\tarp.c:720: break;
      0007DC C3r28r09         [10] 1613 	jp	00204$
                                   1614 ;src\tarp.c:722: case 3:    //
      0007DF                       1615 00189$:
                                   1616 ;src\tarp.c:723: ChangePattern();
      0007DF CDr8Cr11         [17] 1617 	call	_ChangePattern
                                   1618 ;src\tarp.c:724: ShowPattern();
      0007E2 CDr13r14         [17] 1619 	call	_ShowPattern
                                   1620 ;src\tarp.c:725: break;
      0007E5 C3r28r09         [10] 1621 	jp	00204$
                                   1622 ;src\tarp.c:727: case 4:    //copy current pattern to other (A->B;B->A)
      0007E8                       1623 00190$:
                                   1624 ;src\tarp.c:728: CopyPattern();
      0007E8 CDrC8r11         [17] 1625 	call	_CopyPattern
                                   1626 ;src\tarp.c:729: break;   
      0007EB C3r28r09         [10] 1627 	jp	00204$
                                   1628 ;src\tarp.c:731: case 6:    //Rhythm channel On/Off
      0007EE                       1629 00191$:
                                   1630 ;src\tarp.c:732: invertDrumChannel();
      0007EE CDrFFr0C         [17] 1631 	call	_invertDrumChannel
                                   1632 ;src\tarp.c:733: break;
      0007F1 C3r28r09         [10] 1633 	jp	00204$
                                   1634 ;src\tarp.c:735: case 7:    //random Rhithm
      0007F4                       1635 00192$:
                                   1636 ;src\tarp.c:736: genDrumPattern(); 
      0007F4 CDrA7r12         [17] 1637 	call	_genDrumPattern
                                   1638 ;src\tarp.c:737: break;
      0007F7 C3r28r09         [10] 1639 	jp	00204$
                                   1640 ;src\tarp.c:739: case 8:
      0007FA                       1641 00193$:
                                   1642 ;src\tarp.c:740: _isDrumKitB= !_isDrumKitB;
      0007FA 3Ar0Dr01         [13] 1643 	ld	a, (__isDrumKitB+0)
      0007FD D6 01            [ 7] 1644 	sub	a, #0x01
      0007FF 3E 00            [ 7] 1645 	ld	a, #0x00
      000801 17               [ 4] 1646 	rla
      000802 DD 77 FB         [19] 1647 	ld	-5 (ix), a
      000805 32r0Dr01         [13] 1648 	ld	(__isDrumKitB+0), a
                                   1649 ;src\tarp.c:741: SetDrumKit(_isDrumKitB);
      000808 AF               [ 4] 1650 	xor	a, a
      000809 FD 21r0Dr01      [14] 1651 	ld	iy, #__isDrumKitB
      00080D FD BE 00         [19] 1652 	cp	a, 0 (iy)
      000810 17               [ 4] 1653 	rla
      000811 CDr6Fr10         [17] 1654 	call	_SetDrumKit
                                   1655 ;src\tarp.c:742: GUI_switcher(GUI_DKIT_VADDR,_isDrumKitB); 
      000814 AF               [ 4] 1656 	xor	a, a
      000815 FD 21r0Dr01      [14] 1657 	ld	iy, #__isDrumKitB
      000819 FD BE 00         [19] 1658 	cp	a, 0 (iy)
      00081C 17               [ 4] 1659 	rla
      00081D F5               [11] 1660 	push	af
      00081E 33               [ 6] 1661 	inc	sp
      00081F 21 49 19         [10] 1662 	ld	hl, #0x1949
      000822 CDrC1r16         [17] 1663 	call	_GUI_switcher
                                   1664 ;src\tarp.c:743: break;
      000825 C3r28r09         [10] 1665 	jp	00204$
                                   1666 ;src\tarp.c:745: case 9:    //Melody channel On/Off
      000828                       1667 00194$:
                                   1668 ;src\tarp.c:746: invertToneChannel();
      000828 CDr10r0D         [17] 1669 	call	_invertToneChannel
                                   1670 ;src\tarp.c:747: break;
      00082B C3r28r09         [10] 1671 	jp	00204$
                                   1672 ;src\tarp.c:749: case 10:    //random Melody
      00082E                       1673 00195$:
                                   1674 ;src\tarp.c:750: genTonePattern(); 
      00082E CDr5Cr13         [17] 1675 	call	_genTonePattern
                                   1676 ;src\tarp.c:751: break;
      000831 C3r28r09         [10] 1677 	jp	00204$
                                   1678 ;src\tarp.c:753: case 11:
      000834                       1679 00196$:
                                   1680 ;src\tarp.c:754: _pattern->AB_MIX=!_pattern->AB_MIX;
      000834 2Ar37r00         [16] 1681 	ld	hl, (__pattern)
      000837 DD 75 FA         [19] 1682 	ld	-6 (ix), l
      00083A DD 74 FB         [19] 1683 	ld	-5 (ix), h
      00083D DD 7E FA         [19] 1684 	ld	a, -6 (ix)
      000840 C6 02            [ 7] 1685 	add	a, #0x02
      000842 DD 77 F8         [19] 1686 	ld	-8 (ix), a
      000845 DD 7E FB         [19] 1687 	ld	a, -5 (ix)
      000848 CE 00            [ 7] 1688 	adc	a, #0x00
      00084A DD 77 F9         [19] 1689 	ld	-7 (ix), a
      00084D 2Ar37r00         [16] 1690 	ld	hl, (__pattern)
      000850 DD 75 FA         [19] 1691 	ld	-6 (ix), l
      000853 DD 74 FB         [19] 1692 	ld	-5 (ix), h
      000856 23               [ 6] 1693 	inc	hl
      000857 23               [ 6] 1694 	inc	hl
      000858 7E               [ 7] 1695 	ld	a, (hl)
      000859 DD 77 FB         [19] 1696 	ld	-5 (ix), a
      00085C EE 01            [ 7] 1697 	xor	a, #0x01
      00085E DD 6E F8         [19] 1698 	ld	l, -8 (ix)
      000861 DD 66 F9         [19] 1699 	ld	h, -7 (ix)
      000864 77               [ 7] 1700 	ld	(hl), a
                                   1701 ;src\tarp.c:755: showABmix(); 
      000865 CDrC6r14         [17] 1702 	call	_showABmix
                                   1703 ;src\tarp.c:756: break;
      000868 C3r28r09         [10] 1704 	jp	00204$
                                   1705 ;src\tarp.c:766: case 14:
      00086B                       1706 00197$:
                                   1707 ;src\tarp.c:768: envelope_list[_pattern->Envelope].isLoop=!envelope_list[_pattern->Envelope].isLoop;
      00086B 2Ar37r00         [16] 1708 	ld	hl, (__pattern)
      00086E DD 75 FA         [19] 1709 	ld	-6 (ix), l
      000871 DD 74 FB         [19] 1710 	ld	-5 (ix), h
      000874 11 04 00         [10] 1711 	ld	de, #0x0004
      000877 19               [11] 1712 	add	hl, de
      000878 7E               [ 7] 1713 	ld	a, (hl)
      000879 DD 77 FB         [19] 1714 	ld	-5 (ix), a
      00087C 4F               [ 4] 1715 	ld	c, a
      00087D 06 00            [ 7] 1716 	ld	b, #0x00
      00087F 69               [ 4] 1717 	ld	l, c
      000880 60               [ 4] 1718 	ld	h, b
      000881 29               [11] 1719 	add	hl, hl
      000882 29               [11] 1720 	add	hl, hl
      000883 29               [11] 1721 	add	hl, hl
      000884 29               [11] 1722 	add	hl, hl
      000885 09               [11] 1723 	add	hl, bc
      000886 DD 75 FA         [19] 1724 	ld	-6 (ix), l
      000889 DD 74 FB         [19] 1725 	ld	-5 (ix), h
      00088C 3Er83            [ 7] 1726 	ld	a, #<(_envelope_list)
      00088E DD 86 FA         [19] 1727 	add	a, -6 (ix)
      000891 DD 77 F6         [19] 1728 	ld	-10 (ix), a
      000894 3Es00            [ 7] 1729 	ld	a, #>(_envelope_list)
      000896 DD 8E FB         [19] 1730 	adc	a, -5 (ix)
      000899 DD 77 F7         [19] 1731 	ld	-9 (ix), a
      00089C 2Ar37r00         [16] 1732 	ld	hl, (__pattern)
      00089F DD 75 FA         [19] 1733 	ld	-6 (ix), l
      0008A2 DD 74 FB         [19] 1734 	ld	-5 (ix), h
      0008A5 11 04 00         [10] 1735 	ld	de, #0x0004
      0008A8 19               [11] 1736 	add	hl, de
      0008A9 7E               [ 7] 1737 	ld	a, (hl)
      0008AA DD 77 FB         [19] 1738 	ld	-5 (ix), a
      0008AD 4F               [ 4] 1739 	ld	c, a
      0008AE 06 00            [ 7] 1740 	ld	b, #0x00
      0008B0 69               [ 4] 1741 	ld	l, c
      0008B1 60               [ 4] 1742 	ld	h, b
      0008B2 29               [11] 1743 	add	hl, hl
      0008B3 29               [11] 1744 	add	hl, hl
      0008B4 29               [11] 1745 	add	hl, hl
      0008B5 29               [11] 1746 	add	hl, hl
      0008B6 09               [11] 1747 	add	hl, bc
      0008B7 DD 75 F8         [19] 1748 	ld	-8 (ix), l
      0008BA DD 74 F9         [19] 1749 	ld	-7 (ix), h
      0008BD 3Er83            [ 7] 1750 	ld	a, #<(_envelope_list)
      0008BF DD 86 F8         [19] 1751 	add	a, -8 (ix)
      0008C2 DD 77 FA         [19] 1752 	ld	-6 (ix), a
      0008C5 3Es00            [ 7] 1753 	ld	a, #>(_envelope_list)
      0008C7 DD 8E F9         [19] 1754 	adc	a, -7 (ix)
      0008CA DD 77 FB         [19] 1755 	ld	-5 (ix), a
      0008CD DD 6E FA         [19] 1756 	ld	l, -6 (ix)
      0008D0 DD 66 FB         [19] 1757 	ld	h, -5 (ix)
      0008D3 7E               [ 7] 1758 	ld	a, (hl)
      0008D4 EE 01            [ 7] 1759 	xor	a, #0x01
      0008D6 DD 6E F6         [19] 1760 	ld	l, -10 (ix)
      0008D9 DD 66 F7         [19] 1761 	ld	h, -9 (ix)
      0008DC 77               [ 7] 1762 	ld	(hl), a
                                   1763 ;src\tarp.c:769: GUI_switcher(GUI_ENVLOOP_VADDR,envelope_list[_pattern->Envelope].isLoop); 
      0008DD 2Ar37r00         [16] 1764 	ld	hl, (__pattern)
      0008E0 DD 75 FA         [19] 1765 	ld	-6 (ix), l
      0008E3 DD 74 FB         [19] 1766 	ld	-5 (ix), h
      0008E6 11 04 00         [10] 1767 	ld	de, #0x0004
      0008E9 19               [11] 1768 	add	hl, de
      0008EA 7E               [ 7] 1769 	ld	a, (hl)
      0008EB DD 77 FB         [19] 1770 	ld	-5 (ix), a
      0008EE 4F               [ 4] 1771 	ld	c, a
      0008EF 06 00            [ 7] 1772 	ld	b, #0x00
      0008F1 69               [ 4] 1773 	ld	l, c
      0008F2 60               [ 4] 1774 	ld	h, b
      0008F3 29               [11] 1775 	add	hl, hl
      0008F4 29               [11] 1776 	add	hl, hl
      0008F5 29               [11] 1777 	add	hl, hl
      0008F6 29               [11] 1778 	add	hl, hl
      0008F7 09               [11] 1779 	add	hl, bc
      0008F8 DD 75 F8         [19] 1780 	ld	-8 (ix), l
      0008FB DD 74 F9         [19] 1781 	ld	-7 (ix), h
      0008FE 3Er83            [ 7] 1782 	ld	a, #<(_envelope_list)
      000900 DD 86 F8         [19] 1783 	add	a, -8 (ix)
      000903 DD 77 FA         [19] 1784 	ld	-6 (ix), a
      000906 3Es00            [ 7] 1785 	ld	a, #>(_envelope_list)
      000908 DD 8E F9         [19] 1786 	adc	a, -7 (ix)
      00090B DD 77 FB         [19] 1787 	ld	-5 (ix), a
      00090E DD 6E FA         [19] 1788 	ld	l, -6 (ix)
      000911 DD 66 FB         [19] 1789 	ld	h, -5 (ix)
      000914 7E               [ 7] 1790 	ld	a, (hl)
      000915 F5               [11] 1791 	push	af
      000916 33               [ 6] 1792 	inc	sp
      000917 21 29 1A         [10] 1793 	ld	hl, #0x1a29
      00091A CDrC1r16         [17] 1794 	call	_GUI_switcher
                                   1795 ;src\tarp.c:770: break;
      00091D 18 09            [12] 1796 	jr	00204$
                                   1797 ;src\tarp.c:777: case 17:
      00091F                       1798 00198$:
                                   1799 ;src\tarp.c:778: Help();
      00091F CDrBAr0A         [17] 1800 	call	_Help
                                   1801 ;src\tarp.c:781: }
      000922 18 04            [12] 1802 	jr	00204$
      000924                       1803 00203$:
                                   1804 ;src\tarp.c:783: }else joytrigbool = false;
      000924 DD 36 F4 00      [19] 1805 	ld	-12 (ix), #0x00
      000928                       1806 00204$:
                                   1807 ;src\tarp.c:789: keyPressed = GetKeyMatrix(0);
      000928 AF               [ 4] 1808 	xor	a, a
      000929 CDr00r00         [17] 1809 	call	_GetKeyMatrix
                                   1810 ;src\tarp.c:790: if (keyPressed!=0xFF)
      00092C 4F               [ 4] 1811 	ld	c, a
      00092D 3C               [ 4] 1812 	inc	a
      00092E 28 42            [12] 1813 	jr	Z, 00216$
                                   1814 ;src\tarp.c:792: if(keyB0pressed==false)
      000930 DD CB EE 46      [20] 1815 	bit	0, -18 (ix)
      000934 20 40            [12] 1816 	jr	NZ, 00217$
                                   1817 ;src\tarp.c:795: if (!(keyPressed&Bit1)) {SetPatternLenght(1);keyB0pressed=true;}; // 1 
      000936 CB 49            [ 8] 1818 	bit	1, c
      000938 20 0B            [12] 1819 	jr	NZ, 00206$
      00093A C5               [11] 1820 	push	bc
      00093B 3E 01            [ 7] 1821 	ld	a, #0x01
      00093D CDr8Ar0C         [17] 1822 	call	_SetPatternLenght
      000940 C1               [10] 1823 	pop	bc
      000941 DD 36 EE 01      [19] 1824 	ld	-18 (ix), #0x01
      000945                       1825 00206$:
                                   1826 ;src\tarp.c:796: if (!(keyPressed&Bit2)) {SetPatternLenght(3);keyB0pressed=true;}; // 2
      000945 CB 51            [ 8] 1827 	bit	2, c
      000947 20 0B            [12] 1828 	jr	NZ, 00208$
      000949 C5               [11] 1829 	push	bc
      00094A 3E 03            [ 7] 1830 	ld	a, #0x03
      00094C CDr8Ar0C         [17] 1831 	call	_SetPatternLenght
      00094F C1               [10] 1832 	pop	bc
      000950 DD 36 EE 01      [19] 1833 	ld	-18 (ix), #0x01
      000954                       1834 00208$:
                                   1835 ;src\tarp.c:797: if (!(keyPressed&Bit3)) {SetPatternLenght(7);keyB0pressed=true;}; // 3
      000954 CB 59            [ 8] 1836 	bit	3, c
      000956 20 0B            [12] 1837 	jr	NZ, 00210$
      000958 C5               [11] 1838 	push	bc
      000959 3E 07            [ 7] 1839 	ld	a, #0x07
      00095B CDr8Ar0C         [17] 1840 	call	_SetPatternLenght
      00095E C1               [10] 1841 	pop	bc
      00095F DD 36 EE 01      [19] 1842 	ld	-18 (ix), #0x01
      000963                       1843 00210$:
                                   1844 ;src\tarp.c:798: if (!(keyPressed&Bit4)) {SetPatternLenght(15);keyB0pressed=true;}; // 4
      000963 CB 61            [ 8] 1845 	bit	4, c
      000965 20 0F            [12] 1846 	jr	NZ, 00217$
      000967 3E 0F            [ 7] 1847 	ld	a, #0x0f
      000969 CDr8Ar0C         [17] 1848 	call	_SetPatternLenght
      00096C DD 36 EE 01      [19] 1849 	ld	-18 (ix), #0x01
      000970 18 04            [12] 1850 	jr	00217$
      000972                       1851 00216$:
                                   1852 ;src\tarp.c:803: }else keyB0pressed=false;
      000972 DD 36 EE 00      [19] 1853 	ld	-18 (ix), #0x00
      000976                       1854 00217$:
                                   1855 ;src\tarp.c:807: keyPressed = GetKeyMatrix(2);
      000976 3E 02            [ 7] 1856 	ld	a, #0x02
      000978 CDr00r00         [17] 1857 	call	_GetKeyMatrix
                                   1858 ;src\tarp.c:808: if (keyPressed!=0xFF)
      00097B 4F               [ 4] 1859 	ld	c, a
      00097C 3C               [ 4] 1860 	inc	a
      00097D 28 20            [12] 1861 	jr	Z, 00225$
                                   1862 ;src\tarp.c:810: if(keyB2pressed==false)
      00097F DD CB EF 46      [20] 1863 	bit	0, -17 (ix)
      000983 20 1E            [12] 1864 	jr	NZ, 00226$
                                   1865 ;src\tarp.c:814: if (!(keyPressed&Bit2)) {TransposeDown();keyB2pressed=true;}; // ,/<
      000985 CB 51            [ 8] 1866 	bit	2, c
      000987 20 09            [12] 1867 	jr	NZ, 00219$
      000989 C5               [11] 1868 	push	bc
      00098A CDr0Dr15         [17] 1869 	call	_TransposeDown
      00098D C1               [10] 1870 	pop	bc
      00098E DD 36 EF 01      [19] 1871 	ld	-17 (ix), #0x01
      000992                       1872 00219$:
                                   1873 ;src\tarp.c:815: if (!(keyPressed&Bit3)) {TransposeUp();keyB2pressed=true;};   // ./>
      000992 CB 59            [ 8] 1874 	bit	3, c
      000994 20 0D            [12] 1875 	jr	NZ, 00226$
      000996 CDrE9r14         [17] 1876 	call	_TransposeUp
      000999 DD 36 EF 01      [19] 1877 	ld	-17 (ix), #0x01
      00099D 18 04            [12] 1878 	jr	00226$
      00099F                       1879 00225$:
                                   1880 ;src\tarp.c:821: }else keyB2pressed=false;
      00099F DD 36 EF 00      [19] 1881 	ld	-17 (ix), #0x00
      0009A3                       1882 00226$:
                                   1883 ;src\tarp.c:825: keyPressed = GetKeyMatrix(6);
      0009A3 3E 06            [ 7] 1884 	ld	a, #0x06
      0009A5 CDr00r00         [17] 1885 	call	_GetKeyMatrix
                                   1886 ;src\tarp.c:826: if (keyPressed!=0xFF)
      0009A8 4F               [ 4] 1887 	ld	c, a
      0009A9 3C               [ 4] 1888 	inc	a
      0009AA 28 47            [12] 1889 	jr	Z, 00240$
                                   1890 ;src\tarp.c:828: if(keyB6pressed==false)
      0009AC DD CB F0 46      [20] 1891 	bit	0, -16 (ix)
      0009B0 20 45            [12] 1892 	jr	NZ, 00241$
                                   1893 ;src\tarp.c:830: if (!(keyPressed&Bit0)) {genTonePattern();keyB6pressed=true;}; // SHIFT
      0009B2 CB 41            [ 8] 1894 	bit	0, c
      0009B4 20 09            [12] 1895 	jr	NZ, 00228$
      0009B6 C5               [11] 1896 	push	bc
      0009B7 CDr5Cr13         [17] 1897 	call	_genTonePattern
      0009BA C1               [10] 1898 	pop	bc
      0009BB DD 36 F0 01      [19] 1899 	ld	-16 (ix), #0x01
      0009BF                       1900 00228$:
                                   1901 ;src\tarp.c:831: if (!(keyPressed&Bit1)) {genDrumPattern();keyB6pressed=true;};// CTRL
      0009BF CB 49            [ 8] 1902 	bit	1, c
      0009C1 20 09            [12] 1903 	jr	NZ, 00230$
      0009C3 C5               [11] 1904 	push	bc
      0009C4 CDrA7r12         [17] 1905 	call	_genDrumPattern
      0009C7 C1               [10] 1906 	pop	bc
      0009C8 DD 36 F0 01      [19] 1907 	ld	-16 (ix), #0x01
      0009CC                       1908 00230$:
                                   1909 ;src\tarp.c:832: if (!(keyPressed&Bit2)) {CopyPattern();keyB6pressed=true;};   // GRAPH
      0009CC CB 51            [ 8] 1910 	bit	2, c
      0009CE 20 09            [12] 1911 	jr	NZ, 00232$
      0009D0 C5               [11] 1912 	push	bc
      0009D1 CDrC8r11         [17] 1913 	call	_CopyPattern
      0009D4 C1               [10] 1914 	pop	bc
      0009D5 DD 36 F0 01      [19] 1915 	ld	-16 (ix), #0x01
      0009D9                       1916 00232$:
                                   1917 ;src\tarp.c:835: if (!(keyPressed&Bit5)) {invertDrumChannel();keyB6pressed=true;}; // F1
      0009D9 CB 69            [ 8] 1918 	bit	5, c
      0009DB 20 09            [12] 1919 	jr	NZ, 00234$
      0009DD C5               [11] 1920 	push	bc
      0009DE CDrFFr0C         [17] 1921 	call	_invertDrumChannel
      0009E1 C1               [10] 1922 	pop	bc
      0009E2 DD 36 F0 01      [19] 1923 	ld	-16 (ix), #0x01
      0009E6                       1924 00234$:
                                   1925 ;src\tarp.c:836: if (!(keyPressed&Bit6)) {invertToneChannel();keyB6pressed=true;}; // F2
      0009E6 CB 71            [ 8] 1926 	bit	6, c
      0009E8 20 0D            [12] 1927 	jr	NZ, 00241$
      0009EA CDr10r0D         [17] 1928 	call	_invertToneChannel
      0009ED DD 36 F0 01      [19] 1929 	ld	-16 (ix), #0x01
      0009F1 18 04            [12] 1930 	jr	00241$
      0009F3                       1931 00240$:
                                   1932 ;src\tarp.c:839: }else keyB6pressed=false;
      0009F3 DD 36 F0 00      [19] 1933 	ld	-16 (ix), #0x00
      0009F7                       1934 00241$:
                                   1935 ;src\tarp.c:844: keyPressed = GetKeyMatrix(7);
      0009F7 3E 07            [ 7] 1936 	ld	a, #0x07
      0009F9 CDr00r00         [17] 1937 	call	_GetKeyMatrix
                                   1938 ;src\tarp.c:845: if (keyPressed!=0xFF)
      0009FC DD 77 FB         [19] 1939 	ld	-5 (ix), a
      0009FF 3C               [ 4] 1940 	inc	a
      000A00 28 74            [12] 1941 	jr	Z, 00255$
                                   1942 ;src\tarp.c:847: if(keyB7pressed==false)
      000A02 DD CB F1 46      [20] 1943 	bit	0, -15 (ix)
      000A06 20 72            [12] 1944 	jr	NZ, 00256$
                                   1945 ;src\tarp.c:852: if (!(keyPressed&Bit3)) {
      000A08 DD CB FB 5E      [20] 1946 	bit	3, -5 (ix)
      000A0C 20 0A            [12] 1947 	jr	NZ, 00243$
                                   1948 ;src\tarp.c:854: genDrumPattern();
      000A0E CDrA7r12         [17] 1949 	call	_genDrumPattern
                                   1950 ;src\tarp.c:855: genTonePattern();
      000A11 CDr5Cr13         [17] 1951 	call	_genTonePattern
                                   1952 ;src\tarp.c:856: keyB7pressed=true;
      000A14 DD 36 F1 01      [19] 1953 	ld	-15 (ix), #0x01
      000A18                       1954 00243$:
                                   1955 ;src\tarp.c:858: if (!(keyPressed&Bit4)) {Stop();keyB7pressed=true;}; // STOP
      000A18 DD CB FB 66      [20] 1956 	bit	4, -5 (ix)
      000A1C 20 07            [12] 1957 	jr	NZ, 00245$
      000A1E CDr56r11         [17] 1958 	call	_Stop
      000A21 DD 36 F1 01      [19] 1959 	ld	-15 (ix), #0x01
      000A25                       1960 00245$:
                                   1961 ;src\tarp.c:859: if (!(keyPressed&Bit5)) {
      000A25 DD CB FB 6E      [20] 1962 	bit	5, -5 (ix)
      000A29 20 0A            [12] 1963 	jr	NZ, 00247$
                                   1964 ;src\tarp.c:860: ChangePattern();  
      000A2B CDr8Cr11         [17] 1965 	call	_ChangePattern
                                   1966 ;src\tarp.c:861: ShowPattern();
      000A2E CDr13r14         [17] 1967 	call	_ShowPattern
                                   1968 ;src\tarp.c:862: keyB7pressed=true;
      000A31 DD 36 F1 01      [19] 1969 	ld	-15 (ix), #0x01
      000A35                       1970 00247$:
                                   1971 ;src\tarp.c:864: if (!(keyPressed&Bit6)) 
      000A35 DD CB FB 76      [20] 1972 	bit	6, -5 (ix)
      000A39 20 2C            [12] 1973 	jr	NZ, 00249$
                                   1974 ;src\tarp.c:866: _isDrumKitB=!_isDrumKitB;
      000A3B 3Ar0Dr01         [13] 1975 	ld	a, (__isDrumKitB+0)
      000A3E D6 01            [ 7] 1976 	sub	a, #0x01
      000A40 3E 00            [ 7] 1977 	ld	a, #0x00
      000A42 17               [ 4] 1978 	rla
      000A43 32r0Dr01         [13] 1979 	ld	(__isDrumKitB+0), a
                                   1980 ;src\tarp.c:867: SetDrumKit(_isDrumKitB);
      000A46 AF               [ 4] 1981 	xor	a, a
      000A47 FD 21r0Dr01      [14] 1982 	ld	iy, #__isDrumKitB
      000A4B FD BE 00         [19] 1983 	cp	a, 0 (iy)
      000A4E 17               [ 4] 1984 	rla
      000A4F CDr6Fr10         [17] 1985 	call	_SetDrumKit
                                   1986 ;src\tarp.c:868: GUI_switcher(GUI_DKIT_VADDR,_isDrumKitB);
      000A52 AF               [ 4] 1987 	xor	a, a
      000A53 FD 21r0Dr01      [14] 1988 	ld	iy, #__isDrumKitB
      000A57 FD BE 00         [19] 1989 	cp	a, 0 (iy)
      000A5A 17               [ 4] 1990 	rla
      000A5B F5               [11] 1991 	push	af
      000A5C 33               [ 6] 1992 	inc	sp
      000A5D 21 49 19         [10] 1993 	ld	hl, #0x1949
      000A60 CDrC1r16         [17] 1994 	call	_GUI_switcher
                                   1995 ;src\tarp.c:869: keyB7pressed=true;
      000A63 DD 36 F1 01      [19] 1996 	ld	-15 (ix), #0x01
      000A67                       1997 00249$:
                                   1998 ;src\tarp.c:871: if (!(keyPressed&Bit7)) {Play();keyB7pressed=true;}; // RETURN
      000A67 DD CB FB 7E      [20] 1999 	bit	7, -5 (ix)
      000A6B 20 0D            [12] 2000 	jr	NZ, 00256$
      000A6D CDr38r11         [17] 2001 	call	_Play
      000A70 DD 36 F1 01      [19] 2002 	ld	-15 (ix), #0x01
      000A74 18 04            [12] 2003 	jr	00256$
      000A76                       2004 00255$:
                                   2005 ;src\tarp.c:873: }else keyB7pressed=false;
      000A76 DD 36 F1 00      [19] 2006 	ld	-15 (ix), #0x00
      000A7A                       2007 00256$:
                                   2008 ;src\tarp.c:876: keyPressed = GetKeyMatrix(8);
      000A7A 3E 08            [ 7] 2009 	ld	a, #0x08
      000A7C CDr00r00         [17] 2010 	call	_GetKeyMatrix
                                   2011 ;src\tarp.c:877: if (keyPressed!=0xFF)
      000A7F 4F               [ 4] 2012 	ld	c, a
      000A80 3C               [ 4] 2013 	inc	a
      000A81 28 30            [12] 2014 	jr	Z, 00266$
                                   2015 ;src\tarp.c:879: if(keyB8pressed==false)
      000A83 DD CB F2 46      [20] 2016 	bit	0, -14 (ix)
      000A87 C2r5Ar03         [10] 2017 	jp	NZ, 00269$
                                   2018 ;src\tarp.c:882: if (!(keyPressed&Bit1)) {Help();keyB8pressed=true;}; // Home
      000A8A CB 49            [ 8] 2019 	bit	1, c
      000A8C 20 09            [12] 2020 	jr	NZ, 00258$
      000A8E C5               [11] 2021 	push	bc
      000A8F CDrBAr0A         [17] 2022 	call	_Help
      000A92 C1               [10] 2023 	pop	bc
      000A93 DD 36 F2 01      [19] 2024 	ld	-14 (ix), #0x01
      000A97                       2025 00258$:
                                   2026 ;src\tarp.c:883: if (!(keyPressed&Bit2)) {upOctave();keyB8pressed=true;}; // Ins
      000A97 CB 51            [ 8] 2027 	bit	2, c
      000A99 20 09            [12] 2028 	jr	NZ, 00260$
      000A9B C5               [11] 2029 	push	bc
      000A9C CDr99r14         [17] 2030 	call	_upOctave
      000A9F C1               [10] 2031 	pop	bc
      000AA0 DD 36 F2 01      [19] 2032 	ld	-14 (ix), #0x01
      000AA4                       2033 00260$:
                                   2034 ;src\tarp.c:884: if (!(keyPressed&Bit3)) {downOctave();keyB8pressed=true;}; // Del
      000AA4 CB 59            [ 8] 2035 	bit	3, c
      000AA6 C2r5Ar03         [10] 2036 	jp	NZ,00269$
      000AA9 CDrA6r14         [17] 2037 	call	_downOctave
      000AAC DD 36 F2 01      [19] 2038 	ld	-14 (ix), #0x01
      000AB0 C3r5Ar03         [10] 2039 	jp	00269$
      000AB3                       2040 00266$:
                                   2041 ;src\tarp.c:890: }else keyB8pressed=false;      
      000AB3 DD 36 F2 00      [19] 2042 	ld	-14 (ix), #0x00
                                   2043 ;src\tarp.c:894: }
      000AB7 C3r5Ar03         [10] 2044 	jp	00269$
                                   2045 ;src\tarp.c:898: void Help(void)
                                   2046 ;	---------------------------------
                                   2047 ; Function Help
                                   2048 ; ---------------------------------
      000ABA                       2049 _Help::
      000ABA DD E5            [15] 2050 	push	ix
      000ABC DD 21 00 00      [14] 2051 	ld	ix,#0
      000AC0 DD 39            [15] 2052 	add	ix,sp
      000AC2 F5               [11] 2053 	push	af
      000AC3 F5               [11] 2054 	push	af
                                   2055 ;src\tarp.c:900: boolean isExit = false;
      000AC4 DD 36 FC 00      [19] 2056 	ld	-4 (ix), #0x00
                                   2057 ;src\tarp.c:902: boolean joybool = false;
      000AC8 DD 36 FD 00      [19] 2058 	ld	-3 (ix), #0x00
                                   2059 ;src\tarp.c:903: boolean joytrigbool = true;
      000ACC DD 36 FE 01      [19] 2060 	ld	-2 (ix), #0x01
                                   2061 ;src\tarp.c:907: char helpLinePos=0;
      000AD0 DD 36 FF 00      [19] 2062 	ld	-1 (ix), #0x00
                                   2063 ;src\tarp.c:912: SetSpriteVisible(0,false);
                                   2064 ;	spillPairReg hl
                                   2065 ;	spillPairReg hl
      000AD4 AF               [ 4] 2066 	xor	a, a
      000AD5 6F               [ 4] 2067 	ld	l, a
      000AD6 CDr00r00         [17] 2068 	call	_SetSpriteVisible
                                   2069 ;src\tarp.c:913: SetSpriteVisible(1,false);
      000AD9 2E 00            [ 7] 2070 	ld	l, #0x00
                                   2071 ;	spillPairReg hl
                                   2072 ;	spillPairReg hl
      000ADB 3E 01            [ 7] 2073 	ld	a, #0x01
      000ADD CDr00r00         [17] 2074 	call	_SetSpriteVisible
                                   2075 ;src\tarp.c:917: if (VDP_type>0) SetPalette(2);
      000AE0 3Ar00r00         [13] 2076 	ld	a, (_VDP_type+0)
      000AE3 B7               [ 4] 2077 	or	a, a
      000AE4 28 05            [12] 2078 	jr	Z, 00102$
      000AE6 3E 02            [ 7] 2079 	ld	a, #0x02
      000AE8 CDr4Er2E         [17] 2080 	call	_SetPalette
      000AEB                       2081 00102$:
                                   2082 ;src\tarp.c:919: showHelpScr();
      000AEB CDrA2r2D         [17] 2083 	call	_showHelpScr
                                   2084 ;src\tarp.c:921: VPRINT(23,1,app_version);
      000AEE 21r60r00         [10] 2085 	ld	hl, #_app_version
      000AF1 E5               [11] 2086 	push	hl
      000AF2 2E 01            [ 7] 2087 	ld	l, #0x01
                                   2088 ;	spillPairReg hl
                                   2089 ;	spillPairReg hl
      000AF4 3E 17            [ 7] 2090 	ld	a, #0x17
      000AF6 CDr14r16         [17] 2091 	call	_VPRINT
                                   2092 ;src\tarp.c:924: HALT;
      000AF9 76               [ 4] 2093 	halt	
                                   2094 ;src\tarp.c:925: PlayAY(); //Dump values from RAM buffer to PSG (AY)
      000AFA CDrC6r0F         [17] 2095 	call	_PlayAY
                                   2096 ;src\tarp.c:926: if (_playerStatus==PLAYER_PLAY) PlayerDecode();
      000AFD 3Ar02r00         [13] 2097 	ld	a, (__playerStatus+0)
      000B00 3D               [ 4] 2098 	dec	a
      000B01 20 03            [12] 2099 	jr	NZ, 00104$
      000B03 CDr21r0E         [17] 2100 	call	_PlayerDecode
      000B06                       2101 00104$:
                                   2102 ;src\tarp.c:928: showHelpText(0);
      000B06 AF               [ 4] 2103 	xor	a, a
      000B07 CDrC3r1A         [17] 2104 	call	_showHelpText
                                   2105 ;src\tarp.c:929: showScrollbar(0);
      000B0A AF               [ 4] 2106 	xor	a, a
      000B0B CDrFBr1A         [17] 2107 	call	_showScrollbar
                                   2108 ;src\tarp.c:935: while(isExit==false)
      000B0E                       2109 00133$:
      000B0E DD CB FC 46      [20] 2110 	bit	0, -4 (ix)
      000B12 C2rBAr0B         [10] 2111 	jp	NZ, 00135$
                                   2112 ;src\tarp.c:937: HALT;
      000B15 76               [ 4] 2113 	halt	
                                   2114 ;src\tarp.c:938: PlayAY(); //Dump values from RAM buffer to PSG (AY)
      000B16 CDrC6r0F         [17] 2115 	call	_PlayAY
                                   2116 ;src\tarp.c:940: if (_playerStatus==PLAYER_PLAY) PlayerDecode();
      000B19 3Ar02r00         [13] 2117 	ld	a, (__playerStatus+0)
      000B1C 3D               [ 4] 2118 	dec	a
      000B1D 20 03            [12] 2119 	jr	NZ, 00106$
      000B1F CDr21r0E         [17] 2120 	call	_PlayerDecode
      000B22                       2121 00106$:
                                   2122 ;src\tarp.c:942: joytrig=STRIG(1);
      000B22 3E 01            [ 7] 2123 	ld	a, #0x01
      000B24 CDr00r00         [17] 2124 	call	_STRIG
      000B27 4F               [ 4] 2125 	ld	c, a
                                   2126 ;src\tarp.c:943: if (joytrig==0) joytrig=STRIG(2);
      000B28 B7               [ 4] 2127 	or	a, a
      000B29 20 06            [12] 2128 	jr	NZ, 00108$
      000B2B 3E 02            [ 7] 2129 	ld	a, #0x02
      000B2D CDr00r00         [17] 2130 	call	_STRIG
      000B30 4F               [ 4] 2131 	ld	c, a
      000B31                       2132 00108$:
                                   2133 ;src\tarp.c:944: if (joytrig>0)
      000B31 79               [ 4] 2134 	ld	a, c
      000B32 B7               [ 4] 2135 	or	a, a
      000B33 28 0C            [12] 2136 	jr	Z, 00112$
                                   2137 ;src\tarp.c:946: if (joytrigbool==false) isExit=true;
      000B35 DD CB FE 46      [20] 2138 	bit	0, -2 (ix)
      000B39 20 0A            [12] 2139 	jr	NZ, 00113$
      000B3B DD 36 FC 01      [19] 2140 	ld	-4 (ix), #0x01
      000B3F 18 04            [12] 2141 	jr	00113$
      000B41                       2142 00112$:
                                   2143 ;src\tarp.c:947: }else joytrigbool = false;
      000B41 DD 36 FE 00      [19] 2144 	ld	-2 (ix), #0x00
      000B45                       2145 00113$:
                                   2146 ;src\tarp.c:950: if (!(GetKeyMatrix(7)&Bit2)) isExit=true; // ESC
      000B45 3E 07            [ 7] 2147 	ld	a, #0x07
      000B47 CDr00r00         [17] 2148 	call	_GetKeyMatrix
      000B4A CB 57            [ 8] 2149 	bit	2, a
      000B4C 20 04            [12] 2150 	jr	NZ, 00115$
      000B4E DD 36 FC 01      [19] 2151 	ld	-4 (ix), #0x01
      000B52                       2152 00115$:
                                   2153 ;src\tarp.c:952: joyval=STICK(0);
      000B52 AF               [ 4] 2154 	xor	a, a
      000B53 CDr00r00         [17] 2155 	call	_STICK
                                   2156 ;src\tarp.c:953: if (joyval==0) joyval=STICK(1);
      000B56 4F               [ 4] 2157 	ld	c, a
      000B57 B7               [ 4] 2158 	or	a, a
      000B58 20 06            [12] 2159 	jr	NZ, 00117$
      000B5A 3E 01            [ 7] 2160 	ld	a, #0x01
      000B5C CDr00r00         [17] 2161 	call	_STICK
      000B5F 4F               [ 4] 2162 	ld	c, a
      000B60                       2163 00117$:
                                   2164 ;src\tarp.c:954: if (joyval==0) joyval=STICK(2);
      000B60 79               [ 4] 2165 	ld	a, c
      000B61 B7               [ 4] 2166 	or	a, a
      000B62 20 06            [12] 2167 	jr	NZ, 00119$
      000B64 3E 02            [ 7] 2168 	ld	a, #0x02
      000B66 CDr00r00         [17] 2169 	call	_STICK
      000B69 4F               [ 4] 2170 	ld	c, a
      000B6A                       2171 00119$:
                                   2172 ;src\tarp.c:955: if (joyval>0)
      000B6A 79               [ 4] 2173 	ld	a, c
      000B6B B7               [ 4] 2174 	or	a, a
      000B6C 28 45            [12] 2175 	jr	Z, 00131$
                                   2176 ;src\tarp.c:957: if (joybool==false)
      000B6E DD CB FD 46      [20] 2177 	bit	0, -3 (ix)
      000B72 20 9A            [12] 2178 	jr	NZ, 00133$
                                   2179 ;src\tarp.c:959: joybool = true;
      000B74 DD 36 FD 01      [19] 2180 	ld	-3 (ix), #0x01
                                   2181 ;src\tarp.c:961: if(joyval==1) // arriba
      000B78 79               [ 4] 2182 	ld	a, c
      000B79 3D               [ 4] 2183 	dec	a
      000B7A 20 17            [12] 2184 	jr	NZ, 00123$
                                   2185 ;src\tarp.c:963: if(helpLinePos>0) 
      000B7C DD 7E FF         [19] 2186 	ld	a, -1 (ix)
      000B7F B7               [ 4] 2187 	or	a, a
      000B80 28 11            [12] 2188 	jr	Z, 00123$
                                   2189 ;src\tarp.c:965: helpLinePos--;
      000B82 DD 35 FF         [23] 2190 	dec	-1 (ix)
                                   2191 ;src\tarp.c:966: showHelpText(helpLinePos);
      000B85 C5               [11] 2192 	push	bc
      000B86 DD 7E FF         [19] 2193 	ld	a, -1 (ix)
      000B89 CDrC3r1A         [17] 2194 	call	_showHelpText
      000B8C DD 7E FF         [19] 2195 	ld	a, -1 (ix)
      000B8F CDrFBr1A         [17] 2196 	call	_showScrollbar
      000B92 C1               [10] 2197 	pop	bc
      000B93                       2198 00123$:
                                   2199 ;src\tarp.c:970: if(joyval==5) // abajo
      000B93 79               [ 4] 2200 	ld	a, c
      000B94 D6 05            [ 7] 2201 	sub	a, #0x05
      000B96 C2r0Er0B         [10] 2202 	jp	NZ,00133$
                                   2203 ;src\tarp.c:972: if(helpLinePos<(HELP_LINES-20)) 
      000B99 DD 7E FF         [19] 2204 	ld	a, -1 (ix)
      000B9C D6 10            [ 7] 2205 	sub	a, #0x10
      000B9E D2r0Er0B         [10] 2206 	jp	NC, 00133$
                                   2207 ;src\tarp.c:974: helpLinePos++;
      000BA1 DD 34 FF         [23] 2208 	inc	-1 (ix)
                                   2209 ;src\tarp.c:975: showHelpText(helpLinePos);
      000BA4 DD 7E FF         [19] 2210 	ld	a, -1 (ix)
      000BA7 CDrC3r1A         [17] 2211 	call	_showHelpText
                                   2212 ;src\tarp.c:976: showScrollbar(helpLinePos);
      000BAA DD 7E FF         [19] 2213 	ld	a, -1 (ix)
      000BAD CDrFBr1A         [17] 2214 	call	_showScrollbar
      000BB0 C3r0Er0B         [10] 2215 	jp	00133$
      000BB3                       2216 00131$:
                                   2217 ;src\tarp.c:982: }else joybool = false;
      000BB3 DD 36 FD 00      [19] 2218 	ld	-3 (ix), #0x00
      000BB7 C3r0Er0B         [10] 2219 	jp	00133$
      000BBA                       2220 00135$:
                                   2221 ;src\tarp.c:987: if (VDP_type>0) SetPalette(1);
      000BBA 3Ar00r00         [13] 2222 	ld	a, (_VDP_type+0)
      000BBD B7               [ 4] 2223 	or	a, a
      000BBE 28 05            [12] 2224 	jr	Z, 00137$
      000BC0 3E 01            [ 7] 2225 	ld	a, #0x01
      000BC2 CDr4Er2E         [17] 2226 	call	_SetPalette
      000BC5                       2227 00137$:
                                   2228 ;src\tarp.c:988: showMainScr();
      000BC5 CDr0Cr2C         [17] 2229 	call	_showMainScr
                                   2230 ;src\tarp.c:989: initGUI();
      000BC8 CDrDAr0B         [17] 2231 	call	_initGUI
                                   2232 ;src\tarp.c:991: }
      000BCB DD F9            [10] 2233 	ld	sp, ix
      000BCD DD E1            [14] 2234 	pop	ix
      000BCF C9               [10] 2235 	ret
                                   2236 ;src\tarp.c:998: void checkMSX(void) 
                                   2237 ;	---------------------------------
                                   2238 ; Function checkMSX
                                   2239 ; ---------------------------------
      000BD0                       2240 _checkMSX::
                                   2241 ;src\tarp.c:1003: VDP_type = PEEK(0x2D);
      000BD0 21 2D 00         [10] 2242 	ld	hl, #0x002d
      000BD3 CDr00r00         [17] 2243 	call	_PEEK
      000BD6 32r00r00         [13] 2244 	ld	(_VDP_type+0), a
                                   2245 ;src\tarp.c:1019: }
      000BD9 C9               [10] 2246 	ret
                                   2247 ;src\tarp.c:1023: void initGUI(void)
                                   2248 ;	---------------------------------
                                   2249 ; Function initGUI
                                   2250 ; ---------------------------------
      000BDA                       2251 _initGUI::
                                   2252 ;src\tarp.c:1025: VPrintNum(GUI_TEMPO_VADDR, _songSpeed, 1); 
      000BDA 3Ar03r00         [13] 2253 	ld	a, (__songSpeed+0)
      000BDD 5F               [ 4] 2254 	ld	e, a
      000BDE 16 00            [ 7] 2255 	ld	d, #0x00
      000BE0 3E 01            [ 7] 2256 	ld	a, #0x01
      000BE2 F5               [11] 2257 	push	af
      000BE3 33               [ 6] 2258 	inc	sp
      000BE4 21 C8 18         [10] 2259 	ld	hl, #0x18c8
      000BE7 CDr39r16         [17] 2260 	call	_VPrintNum
                                   2261 ;src\tarp.c:1027: showSpeaker(GUI_DRUM_VADDR,_DrumEnabled);     
      000BEA 3Ar0Br00         [13] 2262 	ld	a, (__DrumEnabled+0)
      000BED F5               [11] 2263 	push	af
      000BEE 33               [ 6] 2264 	inc	sp
      000BEF 21 0A 19         [10] 2265 	ld	hl, #0x190a
      000BF2 CDr42r17         [17] 2266 	call	_showSpeaker
                                   2267 ;src\tarp.c:1028: showSpeaker(GUI_TONE_VADDR,_ToneEnabled);
      000BF5 3Ar0Ar00         [13] 2268 	ld	a, (__ToneEnabled+0)
      000BF8 F5               [11] 2269 	push	af
      000BF9 33               [ 6] 2270 	inc	sp
      000BFA 21 8A 19         [10] 2271 	ld	hl, #0x198a
      000BFD CDr42r17         [17] 2272 	call	_showSpeaker
                                   2273 ;src\tarp.c:1030: GUI_switcher(GUI_DKIT_VADDR,_isDrumKitB);
      000C00 AF               [ 4] 2274 	xor	a, a
      000C01 FD 21r0Dr01      [14] 2275 	ld	iy, #__isDrumKitB
      000C05 FD BE 00         [19] 2276 	cp	a, 0 (iy)
      000C08 17               [ 4] 2277 	rla
      000C09 F5               [11] 2278 	push	af
      000C0A 33               [ 6] 2279 	inc	sp
      000C0B 21 49 19         [10] 2280 	ld	hl, #0x1949
      000C0E CDrC1r16         [17] 2281 	call	_GUI_switcher
                                   2282 ;src\tarp.c:1032: ShowPattern();            
      000C11 CDr13r14         [17] 2283 	call	_ShowPattern
                                   2284 ;src\tarp.c:1034: VPOKE(vaddr_cursor[_cursor_pos],GUI_CURSOR);
      000C14 01rF0r00         [10] 2285 	ld	bc, #_vaddr_cursor+0
      000C17 3Ar0Cr01         [13] 2286 	ld	a, (__cursor_pos+0)
      000C1A 6F               [ 4] 2287 	ld	l, a
                                   2288 ;	spillPairReg hl
                                   2289 ;	spillPairReg hl
      000C1B 07               [ 4] 2290 	rlca
      000C1C 9F               [ 4] 2291 	sbc	a, a
      000C1D 67               [ 4] 2292 	ld	h, a
                                   2293 ;	spillPairReg hl
                                   2294 ;	spillPairReg hl
      000C1E 29               [11] 2295 	add	hl, hl
      000C1F 09               [11] 2296 	add	hl, bc
      000C20 7E               [ 7] 2297 	ld	a, (hl)
      000C21 23               [ 6] 2298 	inc	hl
      000C22 66               [ 7] 2299 	ld	h, (hl)
                                   2300 ;	spillPairReg hl
      000C23 6F               [ 4] 2301 	ld	l, a
                                   2302 ;	spillPairReg hl
                                   2303 ;	spillPairReg hl
      000C24 3E 80            [ 7] 2304 	ld	a, #0x80
      000C26 F5               [11] 2305 	push	af
      000C27 33               [ 6] 2306 	inc	sp
      000C28 CDr00r00         [17] 2307 	call	_VPOKE
                                   2308 ;src\tarp.c:1036: VPOKE(GUI_PLAY_VADDR,GUI_PLAY_ICON);
      000C2B 3E 16            [ 7] 2309 	ld	a, #0x16
      000C2D F5               [11] 2310 	push	af
      000C2E 33               [ 6] 2311 	inc	sp
      000C2F 21 65 18         [10] 2312 	ld	hl, #0x1865
      000C32 CDr00r00         [17] 2313 	call	_VPOKE
                                   2314 ;src\tarp.c:1038: VPOKE(GUI_SEQ_VADDR+_ENDstep,GUI_SEQLENCURSOR);
      000C35 3Ar07r00         [13] 2315 	ld	a, (__ENDstep+0)
      000C38 26 00            [ 7] 2316 	ld	h, #0x00
                                   2317 ;	spillPairReg hl
                                   2318 ;	spillPairReg hl
      000C3A 6F               [ 4] 2319 	ld	l, a
                                   2320 ;	spillPairReg hl
                                   2321 ;	spillPairReg hl
      000C3B 11 AE 1A         [10] 2322 	ld	de, #0x1aae
      000C3E 19               [11] 2323 	add	hl, de
      000C3F 3E FE            [ 7] 2324 	ld	a, #0xfe
      000C41 F5               [11] 2325 	push	af
      000C42 33               [ 6] 2326 	inc	sp
      000C43 CDr00r00         [17] 2327 	call	_VPOKE
                                   2328 ;src\tarp.c:1040: ShowPatternRadioButton();
                                   2329 ;src\tarp.c:1041: }
      000C46 C3r77r12         [10] 2330 	jp	_ShowPatternRadioButton
                                   2331 ;src\tarp.c:1045: void ShowSequenceCursor(void)
                                   2332 ;	---------------------------------
                                   2333 ; Function ShowSequenceCursor
                                   2334 ; ---------------------------------
      000C49                       2335 _ShowSequenceCursor::
                                   2336 ;src\tarp.c:1048: if (_last_step==_newENDstep) VPOKE(GUI_SEQ_VADDR+_last_step,GUI_SEQLENCURSOR);    
      000C49 3Ar06r00         [13] 2337 	ld	a, (__last_step+0)
      000C4C 4F               [ 4] 2338 	ld	c, a
      000C4D 06 00            [ 7] 2339 	ld	b, #0x00
      000C4F 21 AE 1A         [10] 2340 	ld	hl, #0x1aae
      000C52 09               [11] 2341 	add	hl, bc
      000C53 EB               [ 4] 2342 	ex	de, hl
      000C54 3Ar06r00         [13] 2343 	ld	a, (__last_step+0)
      000C57 FD 21r08r00      [14] 2344 	ld	iy, #__newENDstep
      000C5B FD 96 00         [19] 2345 	sub	a, 0 (iy)
      000C5E 20 0A            [12] 2346 	jr	NZ, 00102$
      000C60 3E FE            [ 7] 2347 	ld	a, #0xfe
      000C62 F5               [11] 2348 	push	af
      000C63 33               [ 6] 2349 	inc	sp
      000C64 EB               [ 4] 2350 	ex	de, hl
      000C65 CDr00r00         [17] 2351 	call	_VPOKE
      000C68 18 08            [12] 2352 	jr	00103$
      000C6A                       2353 00102$:
                                   2354 ;src\tarp.c:1049: else VPOKE(GUI_SEQ_VADDR+_last_step,GUI_EMPTY_BLACK);    //borra la ultima posicion del
      000C6A 3E FF            [ 7] 2355 	ld	a, #0xff
      000C6C F5               [11] 2356 	push	af
      000C6D 33               [ 6] 2357 	inc	sp
      000C6E EB               [ 4] 2358 	ex	de, hl
      000C6F CDr00r00         [17] 2359 	call	_VPOKE
      000C72                       2360 00103$:
                                   2361 ;src\tarp.c:1051: VPOKE(GUI_SEQ_VADDR+_pattern_step,GUI_SEQCURSOR);  //muestra el cursor
      000C72 3Ar05r00         [13] 2362 	ld	a, (__pattern_step+0)
      000C75 26 00            [ 7] 2363 	ld	h, #0x00
                                   2364 ;	spillPairReg hl
                                   2365 ;	spillPairReg hl
      000C77 6F               [ 4] 2366 	ld	l, a
                                   2367 ;	spillPairReg hl
                                   2368 ;	spillPairReg hl
      000C78 11 AE 1A         [10] 2369 	ld	de, #0x1aae
      000C7B 19               [11] 2370 	add	hl, de
      000C7C 3E FD            [ 7] 2371 	ld	a, #0xfd
      000C7E F5               [11] 2372 	push	af
      000C7F 33               [ 6] 2373 	inc	sp
      000C80 CDr00r00         [17] 2374 	call	_VPOKE
                                   2375 ;src\tarp.c:1052: _last_step = _pattern_step;
      000C83 3Ar05r00         [13] 2376 	ld	a, (__pattern_step+0)
      000C86 32r06r00         [13] 2377 	ld	(__last_step+0), a
                                   2378 ;src\tarp.c:1053: }
      000C89 C9               [10] 2379 	ret
                                   2380 ;src\tarp.c:1057: void SetPatternLenght(char length)
                                   2381 ;	---------------------------------
                                   2382 ; Function SetPatternLenght
                                   2383 ; ---------------------------------
      000C8A                       2384 _SetPatternLenght::
      000C8A 4F               [ 4] 2385 	ld	c, a
                                   2386 ;src\tarp.c:1059: _newENDstep = length;
      000C8B 21r08r00         [10] 2387 	ld	hl, #__newENDstep
      000C8E 71               [ 7] 2388 	ld	(hl), c
                                   2389 ;src\tarp.c:1061: if(_playerStatus==PLAYER_STOP) Play();
      000C8F 3Ar02r00         [13] 2390 	ld	a, (__playerStatus+0)
      000C92 B7               [ 4] 2391 	or	a, a
      000C93 20 05            [12] 2392 	jr	NZ, 00102$
      000C95 C5               [11] 2393 	push	bc
      000C96 CDr38r11         [17] 2394 	call	_Play
      000C99 C1               [10] 2395 	pop	bc
      000C9A                       2396 00102$:
                                   2397 ;src\tarp.c:1063: if (_pattern_step<_newENDstep){
      000C9A 3Ar05r00         [13] 2398 	ld	a, (__pattern_step+0)
      000C9D 21r08r00         [10] 2399 	ld	hl, #__newENDstep
      000CA0 96               [ 7] 2400 	sub	a, (hl)
      000CA1 30 19            [12] 2401 	jr	NC, 00104$
                                   2402 ;src\tarp.c:1064: VPOKE(GUI_SEQ_VADDR+_ENDstep,GUI_EMPTY_BLACK);
      000CA3 3Ar07r00         [13] 2403 	ld	a, (__ENDstep+0)
      000CA6 26 00            [ 7] 2404 	ld	h, #0x00
                                   2405 ;	spillPairReg hl
                                   2406 ;	spillPairReg hl
      000CA8 6F               [ 4] 2407 	ld	l, a
                                   2408 ;	spillPairReg hl
                                   2409 ;	spillPairReg hl
      000CA9 11 AE 1A         [10] 2410 	ld	de, #0x1aae
      000CAC 19               [11] 2411 	add	hl, de
      000CAD C5               [11] 2412 	push	bc
      000CAE 3E FF            [ 7] 2413 	ld	a, #0xff
      000CB0 F5               [11] 2414 	push	af
      000CB1 33               [ 6] 2415 	inc	sp
      000CB2 CDr00r00         [17] 2416 	call	_VPOKE
      000CB5 C1               [10] 2417 	pop	bc
                                   2418 ;src\tarp.c:1065: _ENDstep = _newENDstep;
      000CB6 3Ar08r00         [13] 2419 	ld	a, (__newENDstep+0)
      000CB9 32r07r00         [13] 2420 	ld	(__ENDstep+0), a
      000CBC                       2421 00104$:
                                   2422 ;src\tarp.c:1068: VPOKE(GUI_SEQ_VADDR+length,GUI_SEQLENCURSOR);
      000CBC 06 00            [ 7] 2423 	ld	b, #0x00
      000CBE 21 AE 1A         [10] 2424 	ld	hl, #0x1aae
      000CC1 09               [11] 2425 	add	hl, bc
      000CC2 3E FE            [ 7] 2426 	ld	a, #0xfe
      000CC4 F5               [11] 2427 	push	af
      000CC5 33               [ 6] 2428 	inc	sp
      000CC6 CDr00r00         [17] 2429 	call	_VPOKE
                                   2430 ;src\tarp.c:1069: }        
      000CC9 C9               [10] 2431 	ret
                                   2432 ;src\tarp.c:1084: void PlaySomething(void)
                                   2433 ;	---------------------------------
                                   2434 ; Function PlaySomething
                                   2435 ; ---------------------------------
      000CCA                       2436 _PlaySomething::
                                   2437 ;src\tarp.c:1088: _DrumEnabled = true;
      000CCA 21r0Br00         [10] 2438 	ld	hl, #__DrumEnabled
      000CCD 36 01            [10] 2439 	ld	(hl), #0x01
                                   2440 ;src\tarp.c:1089: _ToneEnabled = true;
      000CCF 21r0Ar00         [10] 2441 	ld	hl, #__ToneEnabled
                                   2442 ;src\tarp.c:1091: showSpeaker(GUI_DRUM_VADDR,_DrumEnabled);
      000CD2 3E 01            [ 7] 2443 	ld	a,#0x01
      000CD4 77               [ 7] 2444 	ld	(hl),a
      000CD5 F5               [11] 2445 	push	af
      000CD6 33               [ 6] 2446 	inc	sp
      000CD7 21 0A 19         [10] 2447 	ld	hl, #0x190a
      000CDA CDr42r17         [17] 2448 	call	_showSpeaker
                                   2449 ;src\tarp.c:1092: showSpeaker(GUI_TONE_VADDR,_ToneEnabled);
      000CDD 3Ar0Ar00         [13] 2450 	ld	a, (__ToneEnabled+0)
      000CE0 F5               [11] 2451 	push	af
      000CE1 33               [ 6] 2452 	inc	sp
      000CE2 21 8A 19         [10] 2453 	ld	hl, #0x198a
      000CE5 CDr42r17         [17] 2454 	call	_showSpeaker
                                   2455 ;src\tarp.c:1094: for(i=0;i<2;i++)
      000CE8 06 02            [ 7] 2456 	ld	b, #0x02
      000CEA                       2457 00106$:
                                   2458 ;src\tarp.c:1096: ChangePattern();
      000CEA C5               [11] 2459 	push	bc
      000CEB CDr8Cr11         [17] 2460 	call	_ChangePattern
      000CEE CDrA7r12         [17] 2461 	call	_genDrumPattern
      000CF1 CDr5Cr13         [17] 2462 	call	_genTonePattern
      000CF4 C1               [10] 2463 	pop	bc
      000CF5 10 F3            [13] 2464 	djnz	00106$
                                   2465 ;src\tarp.c:1094: for(i=0;i<2;i++)
                                   2466 ;src\tarp.c:1101: if(_playerStatus==PLAYER_STOP) Play();
      000CF7 3Ar02r00         [13] 2467 	ld	a, (__playerStatus+0)
      000CFA B7               [ 4] 2468 	or	a, a
      000CFB CAr38r11         [10] 2469 	jp	Z,_Play
                                   2470 ;src\tarp.c:1102: }
      000CFE C9               [10] 2471 	ret
                                   2472 ;src\tarp.c:1106: void invertDrumChannel(void)
                                   2473 ;	---------------------------------
                                   2474 ; Function invertDrumChannel
                                   2475 ; ---------------------------------
      000CFF                       2476 _invertDrumChannel::
                                   2477 ;src\tarp.c:1108: _DrumEnabled=!_DrumEnabled;              
      000CFF 3Ar0Br00         [13] 2478 	ld	a, (__DrumEnabled+0)
      000D02 EE 01            [ 7] 2479 	xor	a, #0x01
                                   2480 ;src\tarp.c:1109: showSpeaker(GUI_DRUM_VADDR,_DrumEnabled); 
      000D04 32r0Br00         [13] 2481 	ld	(__DrumEnabled+0), a
      000D07 F5               [11] 2482 	push	af
      000D08 33               [ 6] 2483 	inc	sp
      000D09 21 0A 19         [10] 2484 	ld	hl, #0x190a
      000D0C CDr42r17         [17] 2485 	call	_showSpeaker
                                   2486 ;src\tarp.c:1110: }
      000D0F C9               [10] 2487 	ret
                                   2488 ;src\tarp.c:1114: void invertToneChannel(void)
                                   2489 ;	---------------------------------
                                   2490 ; Function invertToneChannel
                                   2491 ; ---------------------------------
      000D10                       2492 _invertToneChannel::
                                   2493 ;src\tarp.c:1116: _ToneEnabled=!_ToneEnabled;
      000D10 3Ar0Ar00         [13] 2494 	ld	a, (__ToneEnabled+0)
      000D13 EE 01            [ 7] 2495 	xor	a, #0x01
                                   2496 ;src\tarp.c:1117: showSpeaker(GUI_TONE_VADDR,_ToneEnabled);
      000D15 32r0Ar00         [13] 2497 	ld	(__ToneEnabled+0), a
      000D18 F5               [11] 2498 	push	af
      000D19 33               [ 6] 2499 	inc	sp
      000D1A 21 8A 19         [10] 2500 	ld	hl, #0x198a
      000D1D CDr42r17         [17] 2501 	call	_showSpeaker
                                   2502 ;src\tarp.c:1118: }
      000D20 C9               [10] 2503 	ret
                                   2504 ;src\tarp.c:1122: void initWaveEnvelopes(void)
                                   2505 ;	---------------------------------
                                   2506 ; Function initWaveEnvelopes
                                   2507 ; ---------------------------------
      000D21                       2508 _initWaveEnvelopes::
      000D21 DD E5            [15] 2509 	push	ix
      000D23 DD 21 00 00      [14] 2510 	ld	ix,#0
      000D27 DD 39            [15] 2511 	add	ix,sp
      000D29 F5               [11] 2512 	push	af
      000D2A 3B               [ 6] 2513 	dec	sp
                                   2514 ;src\tarp.c:1125: char conta=0;
      000D2B 0E 00            [ 7] 2515 	ld	c, #0x00
                                   2516 ;src\tarp.c:1128: for(i=0;i<8;i++)
      000D2D DD 36 FF 00      [19] 2517 	ld	-1 (ix), #0x00
      000D31                       2518 00105$:
                                   2519 ;src\tarp.c:1130: envelope_list[i].isLoop = enve_loop[i];
      000D31 DD 5E FF         [19] 2520 	ld	e, -1 (ix)
      000D34 16 00            [ 7] 2521 	ld	d, #0x00
      000D36 6B               [ 4] 2522 	ld	l, e
      000D37 62               [ 4] 2523 	ld	h, d
      000D38 29               [11] 2524 	add	hl, hl
      000D39 29               [11] 2525 	add	hl, hl
      000D3A 29               [11] 2526 	add	hl, hl
      000D3B 29               [11] 2527 	add	hl, hl
      000D3C 19               [11] 2528 	add	hl, de
      000D3D 11r83r00         [10] 2529 	ld	de, #_envelope_list
      000D40 19               [11] 2530 	add	hl, de
      000D41 FD 21rE4r00      [14] 2531 	ld	iy, #_enve_loop
      000D45 DD 5E FF         [19] 2532 	ld	e, -1 (ix)
      000D48 16 00            [ 7] 2533 	ld	d, #0x00
      000D4A FD 19            [15] 2534 	add	iy, de
      000D4C FD 46 00         [19] 2535 	ld	b, 0 (iy)
      000D4F AF               [ 4] 2536 	xor	a, a
      000D50 B8               [ 4] 2537 	cp	a, b
      000D51 17               [ 4] 2538 	rla
      000D52 77               [ 7] 2539 	ld	(hl), a
                                   2540 ;src\tarp.c:1131: for(o=0;o<16;o++)
      000D53 EB               [ 4] 2541 	ex	de, hl
      000D54 13               [ 6] 2542 	inc	de
      000D55 41               [ 4] 2543 	ld	b, c
      000D56 0E 00            [ 7] 2544 	ld	c, #0x00
      000D58                       2545 00103$:
                                   2546 ;src\tarp.c:1133: envelope_list[i].ampValues[o] = enve_data[conta++];
      000D58 7B               [ 4] 2547 	ld	a, e
      000D59 81               [ 4] 2548 	add	a, c
      000D5A DD 77 FD         [19] 2549 	ld	-3 (ix), a
      000D5D 7A               [ 4] 2550 	ld	a, d
      000D5E CE 00            [ 7] 2551 	adc	a, #0x00
      000D60 DD 77 FE         [19] 2552 	ld	-2 (ix), a
      000D63 78               [ 4] 2553 	ld	a, b
      000D64 C6r64            [ 7] 2554 	add	a, #<(_enve_data)
      000D66 6F               [ 4] 2555 	ld	l, a
                                   2556 ;	spillPairReg hl
                                   2557 ;	spillPairReg hl
      000D67 3E 00            [ 7] 2558 	ld	a, #0x00
      000D69 CEs00            [ 7] 2559 	adc	a, #>(_enve_data)
      000D6B 04               [ 4] 2560 	inc	b
      000D6C 67               [ 4] 2561 	ld	h, a
      000D6D 7E               [ 7] 2562 	ld	a, (hl)
      000D6E E1               [10] 2563 	pop	hl
      000D6F E5               [11] 2564 	push	hl
      000D70 77               [ 7] 2565 	ld	(hl), a
                                   2566 ;src\tarp.c:1131: for(o=0;o<16;o++)
      000D71 0C               [ 4] 2567 	inc	c
      000D72 79               [ 4] 2568 	ld	a, c
      000D73 D6 10            [ 7] 2569 	sub	a, #0x10
      000D75 38 E1            [12] 2570 	jr	C, 00103$
                                   2571 ;src\tarp.c:1128: for(i=0;i<8;i++)
      000D77 48               [ 4] 2572 	ld	c, b
      000D78 DD 34 FF         [23] 2573 	inc	-1 (ix)
      000D7B DD 7E FF         [19] 2574 	ld	a, -1 (ix)
      000D7E D6 08            [ 7] 2575 	sub	a, #0x08
      000D80 38 AF            [12] 2576 	jr	C, 00105$
                                   2577 ;src\tarp.c:1137: }
      000D82 DD F9            [10] 2578 	ld	sp, ix
      000D84 DD E1            [14] 2579 	pop	ix
      000D86 C9               [10] 2580 	ret
                                   2581 ;src\tarp.c:1141: void initPatternsData(void)
                                   2582 ;	---------------------------------
                                   2583 ; Function initPatternsData
                                   2584 ; ---------------------------------
      000D87                       2585 _initPatternsData::
                                   2586 ;src\tarp.c:1147: patternA.octave = 1;
      000D87 21r39r00         [10] 2587 	ld	hl, #_patternA+0
      000D8A 36 01            [10] 2588 	ld	(hl), #0x01
                                   2589 ;src\tarp.c:1148: patternA.transpose = 12;
      000D8C 21r3Ar00         [10] 2590 	ld	hl, #_patternA + 1
      000D8F 36 0C            [10] 2591 	ld	(hl), #0x0c
                                   2592 ;src\tarp.c:1149: patternA.AB_MIX = true;
      000D91 21r3Br00         [10] 2593 	ld	hl, #_patternA + 2
      000D94 36 01            [10] 2594 	ld	(hl), #0x01
                                   2595 ;src\tarp.c:1150: patternA.AB_offset = 3;
      000D96 21r3Cr00         [10] 2596 	ld	hl, #_patternA + 3
      000D99 36 03            [10] 2597 	ld	(hl), #0x03
                                   2598 ;src\tarp.c:1151: patternA.Envelope = 0;
      000D9B 21r3Dr00         [10] 2599 	ld	hl, #_patternA + 4
      000D9E 36 00            [10] 2600 	ld	(hl), #0x00
                                   2601 ;src\tarp.c:1153: patternB.octave = 1;
      000DA0 21r5Er00         [10] 2602 	ld	hl, #_patternB+0
      000DA3 36 01            [10] 2603 	ld	(hl), #0x01
                                   2604 ;src\tarp.c:1154: patternB.transpose = 12;
      000DA5 21r5Fr00         [10] 2605 	ld	hl, #_patternB + 1
      000DA8 36 0C            [10] 2606 	ld	(hl), #0x0c
                                   2607 ;src\tarp.c:1155: patternB.AB_MIX = true;
      000DAA 21r60r00         [10] 2608 	ld	hl, #_patternB + 2
      000DAD 36 01            [10] 2609 	ld	(hl), #0x01
                                   2610 ;src\tarp.c:1156: patternB.AB_offset = 3;
      000DAF 21r61r00         [10] 2611 	ld	hl, #_patternB + 3
      000DB2 36 03            [10] 2612 	ld	(hl), #0x03
                                   2613 ;src\tarp.c:1157: patternB.Envelope = 0;
      000DB4 21r62r00         [10] 2614 	ld	hl, #_patternB + 4
      000DB7 36 00            [10] 2615 	ld	(hl), #0x00
                                   2616 ;src\tarp.c:1159: for(i=0;i<16;i++)
      000DB9 0E 00            [ 7] 2617 	ld	c, #0x00
      000DBB                       2618 00102$:
                                   2619 ;src\tarp.c:1161: patternA.drum[i]=0;
      000DBB 79               [ 4] 2620 	ld	a, c
      000DBC C6r3E            [ 7] 2621 	add	a, #<((_patternA + 5))
      000DBE 6F               [ 4] 2622 	ld	l, a
                                   2623 ;	spillPairReg hl
                                   2624 ;	spillPairReg hl
      000DBF 3E 00            [ 7] 2625 	ld	a, #0x00
      000DC1 CEs00            [ 7] 2626 	adc	a, #>((_patternA + 5))
      000DC3 67               [ 4] 2627 	ld	h, a
                                   2628 ;	spillPairReg hl
                                   2629 ;	spillPairReg hl
      000DC4 36 00            [10] 2630 	ld	(hl), #0x00
                                   2631 ;src\tarp.c:1162: patternA.tone[i]=0;
      000DC6 21r4Er00         [10] 2632 	ld	hl, #(_patternA + 21)
      000DC9 06 00            [ 7] 2633 	ld	b, #0x00
      000DCB 09               [11] 2634 	add	hl, bc
      000DCC 36 00            [10] 2635 	ld	(hl), #0x00
                                   2636 ;src\tarp.c:1164: patternB.drum[i]=0;
      000DCE 21r63r00         [10] 2637 	ld	hl, #(_patternB + 5)
      000DD1 06 00            [ 7] 2638 	ld	b, #0x00
      000DD3 09               [11] 2639 	add	hl, bc
      000DD4 36 00            [10] 2640 	ld	(hl), #0x00
                                   2641 ;src\tarp.c:1165: patternB.tone[i]=0;
      000DD6 21r73r00         [10] 2642 	ld	hl, #(_patternB + 21)
      000DD9 06 00            [ 7] 2643 	ld	b, #0x00
      000DDB 09               [11] 2644 	add	hl, bc
      000DDC 36 00            [10] 2645 	ld	(hl), #0x00
                                   2646 ;src\tarp.c:1159: for(i=0;i<16;i++)
      000DDE 0C               [ 4] 2647 	inc	c
      000DDF 79               [ 4] 2648 	ld	a, c
      000DE0 D6 10            [ 7] 2649 	sub	a, #0x10
      000DE2 38 D7            [12] 2650 	jr	C, 00102$
                                   2651 ;src\tarp.c:1167: }
      000DE4 C9               [10] 2652 	ret
                                   2653 ;src\tarp.c:1172: void PlayerInit(void)
                                   2654 ;	---------------------------------
                                   2655 ; Function PlayerInit
                                   2656 ; ---------------------------------
      000DE5                       2657 _PlayerInit::
                                   2658 ;src\tarp.c:1174: _songSpeed = 4;
      000DE5 21r03r00         [10] 2659 	ld	hl, #__songSpeed
      000DE8 36 04            [10] 2660 	ld	(hl), #0x04
                                   2661 ;src\tarp.c:1176: _env_step=0;
      000DEA 21r0Cr00         [10] 2662 	ld	hl, #__env_step
      000DED 36 00            [10] 2663 	ld	(hl), #0x00
                                   2664 ;src\tarp.c:1178: _songSpeedStep = _songSpeed;
      000DEF 21r04r00         [10] 2665 	ld	hl, #__songSpeedStep
      000DF2 36 04            [10] 2666 	ld	(hl), #0x04
                                   2667 ;src\tarp.c:1179: _pattern_step=0;
      000DF4 21r05r00         [10] 2668 	ld	hl, #__pattern_step
      000DF7 36 00            [10] 2669 	ld	(hl), #0x00
                                   2670 ;src\tarp.c:1180: _last_step=0;
      000DF9 21r06r00         [10] 2671 	ld	hl, #__last_step
      000DFC 36 00            [10] 2672 	ld	(hl), #0x00
                                   2673 ;src\tarp.c:1181: _ENDstep = 15;  //to control the size of the pattern
      000DFE 21r07r00         [10] 2674 	ld	hl, #__ENDstep
      000E01 36 0F            [10] 2675 	ld	(hl), #0x0f
                                   2676 ;src\tarp.c:1182: _newENDstep = _ENDstep;
      000E03 21r08r00         [10] 2677 	ld	hl, #__newENDstep
      000E06 36 0F            [10] 2678 	ld	(hl), #0x0f
                                   2679 ;src\tarp.c:1184: _pattern = (PATTERN *) patternA; 
      000E08 FD 21r37r00      [14] 2680 	ld	iy, #__pattern
      000E0C FD 36 00r39      [19] 2681 	ld	0 (iy), #<(_patternA)
      000E10 FD 36 01s00      [19] 2682 	ld	1 (iy), #>(_patternA)
                                   2683 ;src\tarp.c:1186: FillRAM((uint) AYREGS,14,0);  //borra el area del buffer de registros del PSG
      000E14 AF               [ 4] 2684 	xor	a, a
      000E15 F5               [11] 2685 	push	af
      000E16 33               [ 6] 2686 	inc	sp
      000E17 11 0E 00         [10] 2687 	ld	de, #0x000e
      000E1A 21r28r00         [10] 2688 	ld	hl, #_AYREGS
      000E1D CDr00r00         [17] 2689 	call	_FillRAM
                                   2690 ;src\tarp.c:1187: }
      000E20 C9               [10] 2691 	ret
                                   2692 ;src\tarp.c:1195: void PlayerDecode(void)
                                   2693 ;	---------------------------------
                                   2694 ; Function PlayerDecode
                                   2695 ; ---------------------------------
      000E21                       2696 _PlayerDecode::
      000E21 DD E5            [15] 2697 	push	ix
      000E23 DD 21 00 00      [14] 2698 	ld	ix,#0
      000E27 DD 39            [15] 2699 	add	ix,sp
      000E29 F5               [11] 2700 	push	af
      000E2A 3B               [ 6] 2701 	dec	sp
                                   2702 ;src\tarp.c:1204: if (_songSpeedStep>=_songSpeed) //control de tempo por ciclos de Vblank 
      000E2B 3Ar04r00         [13] 2703 	ld	a, (__songSpeedStep+0)
      000E2E 21r03r00         [10] 2704 	ld	hl, #__songSpeed
      000E31 96               [ 7] 2705 	sub	a, (hl)
      000E32 DAr44r0F         [10] 2706 	jp	C, 00110$
                                   2707 ;src\tarp.c:1206: _songSpeedStep=0;
      000E35 21r04r00         [10] 2708 	ld	hl, #__songSpeedStep
      000E38 36 00            [10] 2709 	ld	(hl), #0x00
                                   2710 ;src\tarp.c:1209: if(_DrumEnabled==true)
      000E3A 21r0Br00         [10] 2711 	ld	hl, #__DrumEnabled
      000E3D CB 46            [12] 2712 	bit	0, (hl)
      000E3F CArCBr0E         [10] 2713 	jp	Z, 00104$
                                   2714 ;src\tarp.c:1211: drum_type = _pattern->drum[_pattern_step];
      000E42 2Ar37r00         [16] 2715 	ld	hl, (__pattern)
      000E45 01 05 00         [10] 2716 	ld	bc, #0x0005
      000E48 09               [11] 2717 	add	hl, bc
      000E49 3Ar05r00         [13] 2718 	ld	a, (__pattern_step+0)
      000E4C 5F               [ 4] 2719 	ld	e, a
      000E4D 16 00            [ 7] 2720 	ld	d, #0x00
      000E4F 19               [11] 2721 	add	hl, de
      000E50 7E               [ 7] 2722 	ld	a, (hl)
                                   2723 ;src\tarp.c:1213: if(drum_type>0) //0 = there is no drum
                                   2724 ;src\tarp.c:1215: _Drum=&_DrumKit[drum_type-1];
      000E51 B7               [ 4] 2725 	or	a,a
      000E52 28 77            [12] 2726 	jr	Z, 00104$
      000E54 3D               [ 4] 2727 	dec	a
      000E55 6F               [ 4] 2728 	ld	l, a
                                   2729 ;	spillPairReg hl
                                   2730 ;	spillPairReg hl
      000E56 07               [ 4] 2731 	rlca
      000E57 9F               [ 4] 2732 	sbc	a, a
      000E58 67               [ 4] 2733 	ld	h, a
      000E59 29               [11] 2734 	add	hl, hl
      000E5A 29               [11] 2735 	add	hl, hl
      000E5B 29               [11] 2736 	add	hl, hl
      000E5C 11r10r00         [10] 2737 	ld	de, #__DrumKit
      000E5F 19               [11] 2738 	add	hl, de
      000E60 22r0Er00         [16] 2739 	ld	(__Drum), hl
                                   2740 ;src\tarp.c:1217: SetMixer(2,_Drum->isTone,_Drum->isNoise);
      000E63 ED 4Br0Er00      [20] 2741 	ld	bc, (__Drum)
      000E67 69               [ 4] 2742 	ld	l, c
                                   2743 ;	spillPairReg hl
                                   2744 ;	spillPairReg hl
      000E68 60               [ 4] 2745 	ld	h, b
                                   2746 ;	spillPairReg hl
                                   2747 ;	spillPairReg hl
      000E69 23               [ 6] 2748 	inc	hl
      000E6A 56               [ 7] 2749 	ld	d, (hl)
      000E6B 0A               [ 7] 2750 	ld	a, (bc)
      000E6C 6F               [ 4] 2751 	ld	l, a
                                   2752 ;	spillPairReg hl
                                   2753 ;	spillPairReg hl
      000E6D D5               [11] 2754 	push	de
      000E6E 33               [ 6] 2755 	inc	sp
      000E6F 3E 02            [ 7] 2756 	ld	a, #0x02
      000E71 CDrFFr0F         [17] 2757 	call	_SetMixer
                                   2758 ;src\tarp.c:1218: AYREGS[4]  = _Drum->Tone & 0xFF;      
      000E74 2Ar0Er00         [16] 2759 	ld	hl, (__Drum)
      000E77 23               [ 6] 2760 	inc	hl
      000E78 23               [ 6] 2761 	inc	hl
      000E79 7E               [ 7] 2762 	ld	a, (hl)
      000E7A 32r2Cr00         [13] 2763 	ld	(#(_AYREGS + 4)),a
                                   2764 ;src\tarp.c:1219: AYREGS[5]  = (_Drum->Tone & 0xFF00)/255;      
      000E7D 2Ar0Er00         [16] 2765 	ld	hl, (__Drum)
      000E80 23               [ 6] 2766 	inc	hl
      000E81 23               [ 6] 2767 	inc	hl
      000E82 23               [ 6] 2768 	inc	hl
      000E83 66               [ 7] 2769 	ld	h, (hl)
                                   2770 ;	spillPairReg hl
                                   2771 ;	spillPairReg hl
                                   2772 ;	spillPairReg hl
      000E84 2E 00            [ 7] 2773 	ld	l, #0x00
                                   2774 ;	spillPairReg hl
                                   2775 ;	spillPairReg hl
      000E86 11 FF 00         [10] 2776 	ld	de, #0x00ff
      000E89 CDr00r00         [17] 2777 	call	__divuint
      000E8C 21r2Dr00         [10] 2778 	ld	hl, #(_AYREGS + 5)
      000E8F 73               [ 7] 2779 	ld	(hl), e
                                   2780 ;src\tarp.c:1220: AYREGS[6]  = _Drum->Noise; //noise
      000E90 2Ar0Er00         [16] 2781 	ld	hl, (__Drum)
      000E93 11 04 00         [10] 2782 	ld	de, #0x0004
      000E96 19               [11] 2783 	add	hl, de
      000E97 7E               [ 7] 2784 	ld	a, (hl)
      000E98 32r2Er00         [13] 2785 	ld	(#(_AYREGS + 6)),a
                                   2786 ;src\tarp.c:1221: AYREGS[10] = 16; //volumen canal C (16=envolvente)
      000E9B 21r32r00         [10] 2787 	ld	hl, #_AYREGS + 10
      000E9E 36 10            [10] 2788 	ld	(hl), #0x10
                                   2789 ;src\tarp.c:1222: AYREGS[11] = _Drum->Period & 0xFF;      
      000EA0 2Ar0Er00         [16] 2790 	ld	hl, (__Drum)
      000EA3 11 06 00         [10] 2791 	ld	de, #0x0006
      000EA6 19               [11] 2792 	add	hl, de
      000EA7 7E               [ 7] 2793 	ld	a, (hl)
      000EA8 32r33r00         [13] 2794 	ld	(#(_AYREGS + 11)),a
                                   2795 ;src\tarp.c:1223: AYREGS[12] = (_Drum->Period & 0xFF00)/255;
      000EAB 2Ar0Er00         [16] 2796 	ld	hl, (__Drum)
      000EAE 11 07 00         [10] 2797 	ld	de, #0x0007
      000EB1 19               [11] 2798 	add	hl, de
      000EB2 7E               [ 7] 2799 	ld	a, (hl)
                                   2800 ;	spillPairReg hl
      000EB3 2E 00            [ 7] 2801 	ld	l, #0x00
                                   2802 ;	spillPairReg hl
                                   2803 ;	spillPairReg hl
      000EB5 67               [ 4] 2804 	ld	h, a
                                   2805 ;	spillPairReg hl
                                   2806 ;	spillPairReg hl
      000EB6 11 FF 00         [10] 2807 	ld	de, #0x00ff
      000EB9 CDr00r00         [17] 2808 	call	__divuint
      000EBC 21r34r00         [10] 2809 	ld	hl, #(_AYREGS + 12)
      000EBF 73               [ 7] 2810 	ld	(hl), e
                                   2811 ;src\tarp.c:1224: AYREGS[13] = _Drum->Shape; //envelope wave form   
      000EC0 2Ar0Er00         [16] 2812 	ld	hl, (__Drum)
      000EC3 11 05 00         [10] 2813 	ld	de, #0x0005
      000EC6 19               [11] 2814 	add	hl, de
      000EC7 7E               [ 7] 2815 	ld	a, (hl)
      000EC8 32r35r00         [13] 2816 	ld	(#(_AYREGS + 13)),a
      000ECB                       2817 00104$:
                                   2818 ;src\tarp.c:1211: drum_type = _pattern->drum[_pattern_step];
      000ECB 2Ar37r00         [16] 2819 	ld	hl, (__pattern)
      000ECE E3               [19] 2820 	ex	(sp), hl
                                   2821 ;src\tarp.c:1234: tone_note = _pattern->tone[_pattern_step];	  
      000ECF E1               [10] 2822 	pop	hl
      000ED0 E5               [11] 2823 	push	hl
      000ED1 11 15 00         [10] 2824 	ld	de, #0x0015
      000ED4 19               [11] 2825 	add	hl, de
      000ED5 3Ar05r00         [13] 2826 	ld	a, (__pattern_step+0)
      000ED8 5F               [ 4] 2827 	ld	e, a
      000ED9 16 00            [ 7] 2828 	ld	d, #0x00
      000EDB 19               [11] 2829 	add	hl, de
      000EDC 4E               [ 7] 2830 	ld	c, (hl)
      000EDD DD 71 FF         [19] 2831 	ld	-1 (ix), c
                                   2832 ;src\tarp.c:1235: if(tone_note>0)
      000EE0 79               [ 4] 2833 	ld	a, c
      000EE1 B7               [ 4] 2834 	or	a, a
      000EE2 28 45            [12] 2835 	jr	Z, 00106$
                                   2836 ;src\tarp.c:1237: freqA = getFreq(tone_note+(_pattern->octave*12)); //+ variacion; 
      000EE4 E1               [10] 2837 	pop	hl
      000EE5 E5               [11] 2838 	push	hl
      000EE6 4E               [ 7] 2839 	ld	c, (hl)
      000EE7 69               [ 4] 2840 	ld	l, c
                                   2841 ;	spillPairReg hl
                                   2842 ;	spillPairReg hl
      000EE8 29               [11] 2843 	add	hl, hl
      000EE9 09               [11] 2844 	add	hl, bc
      000EEA 29               [11] 2845 	add	hl, hl
      000EEB 29               [11] 2846 	add	hl, hl
      000EEC DD 4E FF         [19] 2847 	ld	c, -1 (ix)
      000EEF 09               [11] 2848 	add	hl, bc
      000EF0 7D               [ 4] 2849 	ld	a, l
      000EF1 CDr30r15         [17] 2850 	call	_getFreq
                                   2851 ;src\tarp.c:1238: freqB = freqA + _pattern->AB_offset;
      000EF4 2Ar37r00         [16] 2852 	ld	hl, (__pattern)
      000EF7 23               [ 6] 2853 	inc	hl
      000EF8 23               [ 6] 2854 	inc	hl
      000EF9 23               [ 6] 2855 	inc	hl
      000EFA 6E               [ 7] 2856 	ld	l, (hl)
                                   2857 ;	spillPairReg hl
      000EFB 26 00            [ 7] 2858 	ld	h, #0x00
                                   2859 ;	spillPairReg hl
                                   2860 ;	spillPairReg hl
      000EFD 19               [11] 2861 	add	hl, de
      000EFE 4D               [ 4] 2862 	ld	c, l
      000EFF 44               [ 4] 2863 	ld	b, h
                                   2864 ;src\tarp.c:1242: AYREGS[0] = freqA & 0xFF;      
      000F00 7B               [ 4] 2865 	ld	a, e
      000F01 32r28r00         [13] 2866 	ld	(#_AYREGS),a
                                   2867 ;src\tarp.c:1243: AYREGS[1] = (freqA & 0xFF00)/255;
      000F04 2E 00            [ 7] 2868 	ld	l, #0x00
                                   2869 ;	spillPairReg hl
                                   2870 ;	spillPairReg hl
      000F06 62               [ 4] 2871 	ld	h, d
                                   2872 ;	spillPairReg hl
                                   2873 ;	spillPairReg hl
      000F07 C5               [11] 2874 	push	bc
      000F08 11 FF 00         [10] 2875 	ld	de, #0x00ff
      000F0B CDr00r00         [17] 2876 	call	__divuint
      000F0E C1               [10] 2877 	pop	bc
      000F0F 21r29r00         [10] 2878 	ld	hl, #(_AYREGS + 1)
      000F12 73               [ 7] 2879 	ld	(hl), e
                                   2880 ;src\tarp.c:1244: AYREGS[2] = freqB & 0xFF;      
      000F13 79               [ 4] 2881 	ld	a, c
      000F14 32r2Ar00         [13] 2882 	ld	(#(_AYREGS + 2)),a
                                   2883 ;src\tarp.c:1245: AYREGS[3] = (freqB & 0xFF00)/255;
      000F17 2E 00            [ 7] 2884 	ld	l, #0x00
                                   2885 ;	spillPairReg hl
                                   2886 ;	spillPairReg hl
      000F19 11 FF 00         [10] 2887 	ld	de, #0x00ff
      000F1C 60               [ 4] 2888 	ld	h, b
                                   2889 ;	spillPairReg hl
                                   2890 ;	spillPairReg hl
      000F1D CDr00r00         [17] 2891 	call	__divuint
      000F20 21r2Br00         [10] 2892 	ld	hl, #(_AYREGS + 3)
      000F23 73               [ 7] 2893 	ld	(hl), e
                                   2894 ;src\tarp.c:1247: _env_step=0;
      000F24 21r0Cr00         [10] 2895 	ld	hl, #__env_step
      000F27 36 00            [10] 2896 	ld	(hl), #0x00
      000F29                       2897 00106$:
                                   2898 ;src\tarp.c:1252: _pattern_step++;
      000F29 FD 21r05r00      [14] 2899 	ld	iy, #__pattern_step
      000F2D FD 34 00         [23] 2900 	inc	0 (iy)
                                   2901 ;src\tarp.c:1253: if(_pattern_step>_ENDstep)
      000F30 3Ar07r00         [13] 2902 	ld	a, (__ENDstep+0)
      000F33 FD 96 00         [19] 2903 	sub	a, 0 (iy)
      000F36 30 10            [12] 2904 	jr	NC, 00111$
                                   2905 ;src\tarp.c:1255: _pattern_step=0;
      000F38 FD 36 00 00      [19] 2906 	ld	0 (iy), #0x00
                                   2907 ;src\tarp.c:1256: _ENDstep = _newENDstep;
      000F3C 3Ar08r00         [13] 2908 	ld	a, (__newENDstep+0)
      000F3F 32r07r00         [13] 2909 	ld	(__ENDstep+0), a
      000F42 18 04            [12] 2910 	jr	00111$
      000F44                       2911 00110$:
                                   2912 ;src\tarp.c:1259: }else _songSpeedStep++;
      000F44 21r04r00         [10] 2913 	ld	hl, #__songSpeedStep
      000F47 34               [11] 2914 	inc	(hl)
      000F48                       2915 00111$:
                                   2916 ;src\tarp.c:1211: drum_type = _pattern->drum[_pattern_step];
      000F48 ED 4Br37r00      [20] 2917 	ld	bc, (__pattern)
                                   2918 ;src\tarp.c:1263: if (_ToneEnabled==true)	_toneAmp = envelope_list[_pattern->Envelope].ampValues[_env_step];        
      000F4C 03               [ 6] 2919 	inc	bc
      000F4D 03               [ 6] 2920 	inc	bc
      000F4E 03               [ 6] 2921 	inc	bc
      000F4F 03               [ 6] 2922 	inc	bc
      000F50 21r0Ar00         [10] 2923 	ld	hl, #__ToneEnabled
      000F53 CB 46            [12] 2924 	bit	0, (hl)
      000F55 28 1D            [12] 2925 	jr	Z, 00113$
      000F57 0A               [ 7] 2926 	ld	a, (bc)
      000F58 5F               [ 4] 2927 	ld	e, a
      000F59 16 00            [ 7] 2928 	ld	d, #0x00
      000F5B 6B               [ 4] 2929 	ld	l, e
      000F5C 62               [ 4] 2930 	ld	h, d
      000F5D 29               [11] 2931 	add	hl, hl
      000F5E 29               [11] 2932 	add	hl, hl
      000F5F 29               [11] 2933 	add	hl, hl
      000F60 29               [11] 2934 	add	hl, hl
      000F61 19               [11] 2935 	add	hl, de
      000F62 11r83r00         [10] 2936 	ld	de, #_envelope_list
      000F65 19               [11] 2937 	add	hl, de
      000F66 23               [ 6] 2938 	inc	hl
      000F67 3Ar0Cr00         [13] 2939 	ld	a, (__env_step+0)
      000F6A 5F               [ 4] 2940 	ld	e, a
      000F6B 16 00            [ 7] 2941 	ld	d, #0x00
      000F6D 19               [11] 2942 	add	hl, de
      000F6E 7E               [ 7] 2943 	ld	a, (hl)
      000F6F 32r0Dr00         [13] 2944 	ld	(__toneAmp+0), a
      000F72 18 05            [12] 2945 	jr	00114$
      000F74                       2946 00113$:
                                   2947 ;src\tarp.c:1264: else _toneAmp = 0;
      000F74 21r0Dr00         [10] 2948 	ld	hl, #__toneAmp
      000F77 36 00            [10] 2949 	ld	(hl), #0x00
      000F79                       2950 00114$:
                                   2951 ;src\tarp.c:1268: _env_step++;  //=_env_speed;
      000F79 FD 21r0Cr00      [14] 2952 	ld	iy, #__env_step
      000F7D FD 34 00         [23] 2953 	inc	0 (iy)
                                   2954 ;src\tarp.c:1270: if (_env_step>15) //control de tamao de envolvente
      000F80 3E 0F            [ 7] 2955 	ld	a, #0x0f
      000F82 FD 96 00         [19] 2956 	sub	a, 0 (iy)
      000F85 30 1E            [12] 2957 	jr	NC, 00119$
                                   2958 ;src\tarp.c:1272: if (envelope_list[_pattern->Envelope].isLoop==true) _env_step=0;
      000F87 0A               [ 7] 2959 	ld	a, (bc)
      000F88 4F               [ 4] 2960 	ld	c, a
      000F89 06 00            [ 7] 2961 	ld	b, #0x00
      000F8B 69               [ 4] 2962 	ld	l, c
      000F8C 60               [ 4] 2963 	ld	h, b
      000F8D 29               [11] 2964 	add	hl, hl
      000F8E 29               [11] 2965 	add	hl, hl
      000F8F 29               [11] 2966 	add	hl, hl
      000F90 29               [11] 2967 	add	hl, hl
      000F91 09               [11] 2968 	add	hl, bc
      000F92 11r83r00         [10] 2969 	ld	de, #_envelope_list
      000F95 19               [11] 2970 	add	hl, de
      000F96 CB 46            [12] 2971 	bit	0, (hl)
      000F98 28 06            [12] 2972 	jr	Z, 00116$
      000F9A FD 36 00 00      [19] 2973 	ld	0 (iy), #0x00
      000F9E 18 05            [12] 2974 	jr	00119$
      000FA0                       2975 00116$:
                                   2976 ;src\tarp.c:1273: else _env_step=15; // ultimo valor de la envolvente
      000FA0 21r0Cr00         [10] 2977 	ld	hl, #__env_step
      000FA3 36 0F            [10] 2978 	ld	(hl), #0x0f
      000FA5                       2979 00119$:
                                   2980 ;src\tarp.c:1276: AYREGS[8] = _toneAmp;
      000FA5 21r30r00         [10] 2981 	ld	hl, #(_AYREGS + 8)
      000FA8 3Ar0Dr00         [13] 2982 	ld	a, (__toneAmp+0)
      000FAB 77               [ 7] 2983 	ld	(hl), a
                                   2984 ;src\tarp.c:1278: if(_pattern->AB_MIX==true) AYREGS[9] = _toneAmp;
      000FAC 2Ar37r00         [16] 2985 	ld	hl, (__pattern)
      000FAF 23               [ 6] 2986 	inc	hl
      000FB0 23               [ 6] 2987 	inc	hl
      000FB1 4E               [ 7] 2988 	ld	c, (hl)
      000FB2 21r31r00         [10] 2989 	ld	hl, #_AYREGS + 9
      000FB5 CB 41            [ 8] 2990 	bit	0, c
      000FB7 28 06            [12] 2991 	jr	Z, 00121$
      000FB9 3Ar0Dr00         [13] 2992 	ld	a, (__toneAmp+0)
      000FBC 77               [ 7] 2993 	ld	(hl), a
      000FBD 18 02            [12] 2994 	jr	00123$
      000FBF                       2995 00121$:
                                   2996 ;src\tarp.c:1279: else AYREGS[9] = 0;
      000FBF 36 00            [10] 2997 	ld	(hl), #0x00
      000FC1                       2998 00123$:
                                   2999 ;src\tarp.c:1281: }
      000FC1 DD F9            [10] 3000 	ld	sp, ix
      000FC3 DD E1            [14] 3001 	pop	ix
      000FC5 C9               [10] 3002 	ret
                                   3003 ;src\tarp.c:1289: void PlayAY(void) __naked
                                   3004 ;	---------------------------------
                                   3005 ; Function PlayAY
                                   3006 ; ---------------------------------
      000FC6                       3007 _PlayAY::
                                   3008 ;src\tarp.c:1340: __endasm;
      000FC6 21r28r00         [10] 3009 	ld	HL,#_AYREGS
      000FC9 3Ar2Fr00         [13] 3010 	ld	A,(#_AYREGS+7)
      000FCC E6 3F            [ 7] 3011 	AND	#0b00111111
      000FCE 47               [ 4] 3012 	ld	B,A
      000FCF 3E 07            [ 7] 3013 	ld	A,#7
      000FD1 D3 A0            [11] 3014 	out	(#0xA0),A
      000FD3 DB A2            [11] 3015 	in	A,(#0xA2)
      000FD5 E6 C0            [ 7] 3016 	and	#0b11000000
      000FD7 B0               [ 4] 3017 	or	B
      000FD8 32r2Fr00         [13] 3018 	ld	(#_AYREGS+7),A
      000FDB 3Ar01r00         [13] 3019 	ld	A,(#__playerHardware)
      000FDE B7               [ 4] 3020 	or	A
      000FDF 28 05            [12] 3021 	jr	Z,PSGinternal
      000FE1 AF               [ 4] 3022 	xor	A
      000FE2 0E 10            [ 7] 3023 	ld	C,#0x10
      000FE4 18 03            [12] 3024 	jr	ILOOP
      000FE6                       3025 PSGinternal:
      000FE6 AF               [ 4] 3026 	xor	A
      000FE7 0E A0            [ 7] 3027 	ld	C,#0xA0
      000FE9                       3028 ILOOP:
      000FE9 ED 79            [12] 3029 	out	(C),A
      000FEB 0C               [ 4] 3030 	inc	C
      000FEC ED A3            [16] 3031 	outi
      000FEE 0D               [ 4] 3032 	dec	C
      000FEF 3C               [ 4] 3033 	inc	A
      000FF0 FE 0D            [ 7] 3034 	cp	#13
      000FF2 20 F5            [12] 3035 	jr	NZ,ILOOP
      000FF4 ED 79            [12] 3036 	out	(C),A
      000FF6 7E               [ 7] 3037 	ld	A,(HL)
      000FF7 B7               [ 4] 3038 	or	A
      000FF8 C8               [11] 3039 	ret	Z
      000FF9 0C               [ 4] 3040 	inc	C
      000FFA ED 79            [12] 3041 	out	(C),A
      000FFC 36 00            [10] 3042 	ld	(HL),#0
      000FFE C9               [10] 3043 	ret
                                   3044 ;src\tarp.c:1341: }
                                   3045 ;src\tarp.c:1347: void SetMixer(char NumChannel, boolean isTone, boolean isNoise)
                                   3046 ;	---------------------------------
                                   3047 ; Function SetMixer
                                   3048 ; ---------------------------------
      000FFF                       3049 _SetMixer::
      000FFF DD E5            [15] 3050 	push	ix
      001001 DD 21 00 00      [14] 3051 	ld	ix,#0
      001005 DD 39            [15] 3052 	add	ix,sp
      001007 3B               [ 6] 3053 	dec	sp
      001008 4F               [ 4] 3054 	ld	c, a
      001009 DD 75 FF         [19] 3055 	ld	-1 (ix), l
                                   3056 ;src\tarp.c:1351: newValue = AYREGS[7]; //GetSound(7);
      00100C 21r2Fr00         [10] 3057 	ld	hl, #(_AYREGS + 7)
      00100F 5E               [ 7] 3058 	ld	e, (hl)
                                   3059 ;src\tarp.c:1353: if(NumChannel==0) 
      001010 79               [ 4] 3060 	ld	a, c
      001011 B7               [ 4] 3061 	or	a, a
      001012 20 18            [12] 3062 	jr	NZ, 00108$
                                   3063 ;src\tarp.c:1355: if(isTone==true){newValue&=254;}else{newValue|=1;}
      001014 DD CB FF 46      [20] 3064 	bit	0, -1 (ix)
      001018 28 04            [12] 3065 	jr	Z, 00102$
      00101A CB 83            [ 8] 3066 	res	0, e
      00101C 18 02            [12] 3067 	jr	00103$
      00101E                       3068 00102$:
      00101E CB C3            [ 8] 3069 	set	0, e
      001020                       3070 00103$:
                                   3071 ;src\tarp.c:1356: if(isNoise==true){newValue&=247;}else{newValue|=8;}
      001020 DD CB 04 46      [20] 3072 	bit	0, 4 (ix)
      001024 28 04            [12] 3073 	jr	Z, 00105$
      001026 CB 9B            [ 8] 3074 	res	3, e
      001028 18 02            [12] 3075 	jr	00108$
      00102A                       3076 00105$:
      00102A CB DB            [ 8] 3077 	set	3, e
      00102C                       3078 00108$:
                                   3079 ;src\tarp.c:1358: if(NumChannel==1)    
      00102C 79               [ 4] 3080 	ld	a, c
      00102D 3D               [ 4] 3081 	dec	a
      00102E 20 18            [12] 3082 	jr	NZ, 00116$
                                   3083 ;src\tarp.c:1360: if(isTone==true){newValue&=253;}else{newValue|=2;}
      001030 DD CB FF 46      [20] 3084 	bit	0, -1 (ix)
      001034 28 04            [12] 3085 	jr	Z, 00110$
      001036 CB 8B            [ 8] 3086 	res	1, e
      001038 18 02            [12] 3087 	jr	00111$
      00103A                       3088 00110$:
      00103A CB CB            [ 8] 3089 	set	1, e
      00103C                       3090 00111$:
                                   3091 ;src\tarp.c:1361: if(isNoise==true){newValue&=239;}else{newValue|=16;}
      00103C DD CB 04 46      [20] 3092 	bit	0, 4 (ix)
      001040 28 04            [12] 3093 	jr	Z, 00113$
      001042 CB A3            [ 8] 3094 	res	4, e
      001044 18 02            [12] 3095 	jr	00116$
      001046                       3096 00113$:
      001046 CB E3            [ 8] 3097 	set	4, e
      001048                       3098 00116$:
                                   3099 ;src\tarp.c:1363: if(NumChannel==2)
      001048 79               [ 4] 3100 	ld	a, c
      001049 D6 02            [ 7] 3101 	sub	a, #0x02
      00104B 20 18            [12] 3102 	jr	NZ, 00124$
                                   3103 ;src\tarp.c:1365: if(isTone==true){newValue&=251;}else{newValue|=4;}
      00104D DD CB FF 46      [20] 3104 	bit	0, -1 (ix)
      001051 28 04            [12] 3105 	jr	Z, 00118$
      001053 CB 93            [ 8] 3106 	res	2, e
      001055 18 02            [12] 3107 	jr	00119$
      001057                       3108 00118$:
      001057 CB D3            [ 8] 3109 	set	2, e
      001059                       3110 00119$:
                                   3111 ;src\tarp.c:1366: if(isNoise==true){newValue&=223;}else{newValue|=32;}
      001059 DD CB 04 46      [20] 3112 	bit	0, 4 (ix)
      00105D 28 04            [12] 3113 	jr	Z, 00121$
      00105F CB AB            [ 8] 3114 	res	5, e
      001061 18 02            [12] 3115 	jr	00124$
      001063                       3116 00121$:
      001063 CB EB            [ 8] 3117 	set	5, e
      001065                       3118 00124$:
                                   3119 ;src\tarp.c:1368: AYREGS[7] = newValue;
      001065 21r2Fr00         [10] 3120 	ld	hl, #(_AYREGS + 7)
      001068 73               [ 7] 3121 	ld	(hl), e
                                   3122 ;src\tarp.c:1369: }
      001069 33               [ 6] 3123 	inc	sp
      00106A DD E1            [14] 3124 	pop	ix
      00106C E1               [10] 3125 	pop	hl
      00106D 33               [ 6] 3126 	inc	sp
      00106E E9               [ 4] 3127 	jp	(hl)
                                   3128 ;src\tarp.c:1373: void SetDrumKit(boolean kit)
                                   3129 ;	---------------------------------
                                   3130 ; Function SetDrumKit
                                   3131 ; ---------------------------------
      00106F                       3132 _SetDrumKit::
                                   3133 ;src\tarp.c:1376: if (kit==false)
      00106F CB 47            [ 8] 3134 	bit	0,a
      001071 20 61            [12] 3135 	jr	NZ, 00102$
                                   3136 ;src\tarp.c:1380: _DrumKit[0].isTone=true;
      001073 21r10r00         [10] 3137 	ld	hl, #__DrumKit+0
      001076 36 01            [10] 3138 	ld	(hl), #0x01
                                   3139 ;src\tarp.c:1381: _DrumKit[0].isNoise=false;
      001078 21r11r00         [10] 3140 	ld	hl, #__DrumKit + 1
      00107B 36 00            [10] 3141 	ld	(hl), #0x00
                                   3142 ;src\tarp.c:1382: _DrumKit[0].Tone=1700;
      00107D 21 A4 06         [10] 3143 	ld	hl, #0x06a4
      001080 22r12r00         [16] 3144 	ld	((__DrumKit + 2)), hl
                                   3145 ;src\tarp.c:1383: _DrumKit[0].Noise=0;
      001083 21r14r00         [10] 3146 	ld	hl, #__DrumKit + 4
      001086 36 00            [10] 3147 	ld	(hl), #0x00
                                   3148 ;src\tarp.c:1384: _DrumKit[0].Shape=1;
      001088 21r15r00         [10] 3149 	ld	hl, #__DrumKit + 5
      00108B 36 01            [10] 3150 	ld	(hl), #0x01
                                   3151 ;src\tarp.c:1385: _DrumKit[0].Period=800;
      00108D 21 20 03         [10] 3152 	ld	hl, #0x0320
      001090 22r16r00         [16] 3153 	ld	((__DrumKit + 6)), hl
                                   3154 ;src\tarp.c:1388: _DrumKit[1].isTone=true;
      001093 21r18r00         [10] 3155 	ld	hl, #__DrumKit + 8
      001096 36 01            [10] 3156 	ld	(hl), #0x01
                                   3157 ;src\tarp.c:1389: _DrumKit[1].isNoise=true;
      001098 21r19r00         [10] 3158 	ld	hl, #__DrumKit + 9
      00109B 36 01            [10] 3159 	ld	(hl), #0x01
                                   3160 ;src\tarp.c:1390: _DrumKit[1].Tone=1000;
      00109D 21 E8 03         [10] 3161 	ld	hl, #0x03e8
      0010A0 22r1Ar00         [16] 3162 	ld	((__DrumKit + 10)), hl
                                   3163 ;src\tarp.c:1391: _DrumKit[1].Noise=0;
      0010A3 21r1Cr00         [10] 3164 	ld	hl, #__DrumKit + 12
      0010A6 36 00            [10] 3165 	ld	(hl), #0x00
                                   3166 ;src\tarp.c:1392: _DrumKit[1].Shape=1;
      0010A8 21r1Dr00         [10] 3167 	ld	hl, #__DrumKit + 13
      0010AB 36 01            [10] 3168 	ld	(hl), #0x01
                                   3169 ;src\tarp.c:1393: _DrumKit[1].Period=1400;
      0010AD 21 78 05         [10] 3170 	ld	hl, #0x0578
      0010B0 22r1Er00         [16] 3171 	ld	((__DrumKit + 14)), hl
                                   3172 ;src\tarp.c:1396: _DrumKit[2].isTone=false;
      0010B3 21r20r00         [10] 3173 	ld	hl, #__DrumKit + 16
      0010B6 36 00            [10] 3174 	ld	(hl), #0x00
                                   3175 ;src\tarp.c:1397: _DrumKit[2].isNoise=true;
      0010B8 21r21r00         [10] 3176 	ld	hl, #__DrumKit + 17
      0010BB 36 01            [10] 3177 	ld	(hl), #0x01
                                   3178 ;src\tarp.c:1398: _DrumKit[2].Tone=0;
      0010BD 21 00 00         [10] 3179 	ld	hl, #0x0000
      0010C0 22r22r00         [16] 3180 	ld	((__DrumKit + 18)), hl
                                   3181 ;src\tarp.c:1399: _DrumKit[2].Noise=0;
      0010C3 21r24r00         [10] 3182 	ld	hl, #__DrumKit + 20
      0010C6 36 00            [10] 3183 	ld	(hl), #0x00
                                   3184 ;src\tarp.c:1400: _DrumKit[2].Shape=1;
      0010C8 21r25r00         [10] 3185 	ld	hl, #__DrumKit + 21
      0010CB 36 01            [10] 3186 	ld	(hl), #0x01
                                   3187 ;src\tarp.c:1401: _DrumKit[2].Period=400;		//200
      0010CD 21 90 01         [10] 3188 	ld	hl, #0x0190
      0010D0 22r26r00         [16] 3189 	ld	((__DrumKit + 22)), hl
      0010D3 C9               [10] 3190 	ret
      0010D4                       3191 00102$:
                                   3192 ;src\tarp.c:1406: _DrumKit[0].isTone=true;
      0010D4 21r10r00         [10] 3193 	ld	hl, #__DrumKit+0
      0010D7 36 01            [10] 3194 	ld	(hl), #0x01
                                   3195 ;src\tarp.c:1407: _DrumKit[0].isNoise=false;
      0010D9 21r11r00         [10] 3196 	ld	hl, #__DrumKit + 1
      0010DC 36 00            [10] 3197 	ld	(hl), #0x00
                                   3198 ;src\tarp.c:1408: _DrumKit[0].Tone=140;
      0010DE 21 8C 00         [10] 3199 	ld	hl, #0x008c
      0010E1 22r12r00         [16] 3200 	ld	((__DrumKit + 2)), hl
                                   3201 ;src\tarp.c:1409: _DrumKit[0].Noise=0;
      0010E4 21r14r00         [10] 3202 	ld	hl, #__DrumKit + 4
      0010E7 36 00            [10] 3203 	ld	(hl), #0x00
                                   3204 ;src\tarp.c:1410: _DrumKit[0].Shape=1;
      0010E9 21r15r00         [10] 3205 	ld	hl, #__DrumKit + 5
      0010EC 36 01            [10] 3206 	ld	(hl), #0x01
                                   3207 ;src\tarp.c:1411: _DrumKit[0].Period=800;
      0010EE 21 20 03         [10] 3208 	ld	hl, #0x0320
      0010F1 22r16r00         [16] 3209 	ld	((__DrumKit + 6)), hl
                                   3210 ;src\tarp.c:1414: _DrumKit[1].isTone=false;
      0010F4 21r18r00         [10] 3211 	ld	hl, #__DrumKit + 8
      0010F7 36 00            [10] 3212 	ld	(hl), #0x00
                                   3213 ;src\tarp.c:1415: _DrumKit[1].isNoise=true;
      0010F9 21r19r00         [10] 3214 	ld	hl, #__DrumKit + 9
      0010FC 36 01            [10] 3215 	ld	(hl), #0x01
                                   3216 ;src\tarp.c:1416: _DrumKit[1].Tone=0;
      0010FE 21 00 00         [10] 3217 	ld	hl, #0x0000
      001101 22r1Ar00         [16] 3218 	ld	((__DrumKit + 10)), hl
                                   3219 ;src\tarp.c:1417: _DrumKit[1].Noise=0;
      001104 21r1Cr00         [10] 3220 	ld	hl, #__DrumKit + 12
      001107 36 00            [10] 3221 	ld	(hl), #0x00
                                   3222 ;src\tarp.c:1418: _DrumKit[1].Shape=1;
      001109 21r1Dr00         [10] 3223 	ld	hl, #__DrumKit + 13
      00110C 36 01            [10] 3224 	ld	(hl), #0x01
                                   3225 ;src\tarp.c:1419: _DrumKit[1].Period=1600;
      00110E 21 40 06         [10] 3226 	ld	hl, #0x0640
      001111 22r1Er00         [16] 3227 	ld	((__DrumKit + 14)), hl
                                   3228 ;src\tarp.c:1422: _DrumKit[2].isTone=true;
      001114 21r20r00         [10] 3229 	ld	hl, #__DrumKit + 16
      001117 36 01            [10] 3230 	ld	(hl), #0x01
                                   3231 ;src\tarp.c:1423: _DrumKit[2].isNoise=false;
      001119 21r21r00         [10] 3232 	ld	hl, #__DrumKit + 17
      00111C 36 00            [10] 3233 	ld	(hl), #0x00
                                   3234 ;src\tarp.c:1424: _DrumKit[2].Tone=66;
      00111E 21 42 00         [10] 3235 	ld	hl, #0x0042
      001121 22r22r00         [16] 3236 	ld	((__DrumKit + 18)), hl
                                   3237 ;src\tarp.c:1425: _DrumKit[2].Noise=0;
      001124 21r24r00         [10] 3238 	ld	hl, #__DrumKit + 20
      001127 36 00            [10] 3239 	ld	(hl), #0x00
                                   3240 ;src\tarp.c:1426: _DrumKit[2].Shape=1;
      001129 21r25r00         [10] 3241 	ld	hl, #__DrumKit + 21
      00112C 36 01            [10] 3242 	ld	(hl), #0x01
                                   3243 ;src\tarp.c:1427: _DrumKit[2].Period=400;
      00112E 21 90 01         [10] 3244 	ld	hl, #0x0190
      001131 22r26r00         [16] 3245 	ld	((__DrumKit + 22)), hl
                                   3246 ;src\tarp.c:1430: }
      001134 C9               [10] 3247 	ret
                                   3248 ;src\tarp.c:1434: void Silence(void)	__naked
                                   3249 ;	---------------------------------
                                   3250 ; Function Silence
                                   3251 ; ---------------------------------
      001135                       3252 _Silence::
                                   3253 ;src\tarp.c:1438: __endasm;
      001135 C3 90 00         [10] 3254 	jp	0x0090
                                   3255 ;src\tarp.c:1439: }
                                   3256 ;src\tarp.c:1443: void Play(void)
                                   3257 ;	---------------------------------
                                   3258 ; Function Play
                                   3259 ; ---------------------------------
      001138                       3260 _Play::
                                   3261 ;src\tarp.c:1445: _songSpeedStep = _songSpeed;
      001138 3Ar03r00         [13] 3262 	ld	a, (__songSpeed+0)
      00113B 32r04r00         [13] 3263 	ld	(__songSpeedStep+0), a
                                   3264 ;src\tarp.c:1446: _pattern_step=0;
      00113E 21r05r00         [10] 3265 	ld	hl, #__pattern_step
      001141 36 00            [10] 3266 	ld	(hl), #0x00
                                   3267 ;src\tarp.c:1447: ShowSequenceCursor();
      001143 CDr49r0C         [17] 3268 	call	_ShowSequenceCursor
                                   3269 ;src\tarp.c:1449: _playerStatus=PLAYER_PLAY;
      001146 21r02r00         [10] 3270 	ld	hl, #__playerStatus
      001149 36 01            [10] 3271 	ld	(hl), #0x01
                                   3272 ;src\tarp.c:1450: VPOKE(GUI_PLAY_VADDR,GUI_STOP_ICON);
      00114B 3E 17            [ 7] 3273 	ld	a, #0x17
      00114D F5               [11] 3274 	push	af
      00114E 33               [ 6] 3275 	inc	sp
      00114F 21 65 18         [10] 3276 	ld	hl, #0x1865
      001152 CDr00r00         [17] 3277 	call	_VPOKE
                                   3278 ;src\tarp.c:1451: }
      001155 C9               [10] 3279 	ret
                                   3280 ;src\tarp.c:1455: void Stop(void)
                                   3281 ;	---------------------------------
                                   3282 ; Function Stop
                                   3283 ; ---------------------------------
      001156                       3284 _Stop::
                                   3285 ;src\tarp.c:1457: AYREGS[8]=0;
      001156 21r30r00         [10] 3286 	ld	hl, #_AYREGS + 8
      001159 36 00            [10] 3287 	ld	(hl), #0x00
                                   3288 ;src\tarp.c:1458: AYREGS[9]=0;
      00115B 21r31r00         [10] 3289 	ld	hl, #_AYREGS + 9
      00115E 36 00            [10] 3290 	ld	(hl), #0x00
                                   3291 ;src\tarp.c:1459: AYREGS[10]=0;
      001160 21r32r00         [10] 3292 	ld	hl, #_AYREGS + 10
      001163 36 00            [10] 3293 	ld	(hl), #0x00
                                   3294 ;src\tarp.c:1460: _playerStatus=PLAYER_STOP;
      001165 21r02r00         [10] 3295 	ld	hl, #__playerStatus
      001168 36 00            [10] 3296 	ld	(hl), #0x00
                                   3297 ;src\tarp.c:1461: VPOKE(GUI_PLAY_VADDR,GUI_PLAY_ICON);
      00116A 3E 16            [ 7] 3298 	ld	a, #0x16
      00116C F5               [11] 3299 	push	af
      00116D 33               [ 6] 3300 	inc	sp
      00116E 21 65 18         [10] 3301 	ld	hl, #0x1865
      001171 CDr00r00         [17] 3302 	call	_VPOKE
                                   3303 ;src\tarp.c:1462: }
      001174 C9               [10] 3304 	ret
                                   3305 ;src\tarp.c:1469: char Rnd(char value) __naked
                                   3306 ;	---------------------------------
                                   3307 ; Function Rnd
                                   3308 ; ---------------------------------
      001175                       3309 _Rnd::
                                   3310 ;src\tarp.c:1497: __endasm;
      001175 4F               [ 4] 3311 	ld	C,A
      001176 ED 5F            [ 9] 3312 	ld	A,R ;
      001178 47               [ 4] 3313 	ld	B,A
      001179 3Ar0Br01         [13] 3314 	ld	A,(#_SEED)
      00117C CB 2F            [ 8] 3315 	SRA	A
      00117E 80               [ 4] 3316 	add	A,B
                                   3317 ;add	A,A
      00117F 47               [ 4] 3318 	ld	B,A
      001180 ED 5F            [ 9] 3319 	ld	A,R ;
      001182 80               [ 4] 3320 	add	A,B
      001183 3C               [ 4] 3321 	inc	A
      001184 32r0Br01         [13] 3322 	ld	(#_SEED),A
      001187 A1               [ 4] 3323 	AND	C ;aplica la mascara
      001188 C9               [10] 3324 	ret
                                   3325 ;src\tarp.c:1498: }
                                   3326 ;src\tarp.c:1502: void pressKey(void) __naked
                                   3327 ;	---------------------------------
                                   3328 ; Function pressKey
                                   3329 ; ---------------------------------
      001189                       3330 _pressKey::
                                   3331 ;src\tarp.c:1506: __endasm;
      001189 C3 9F 00         [10] 3332 	jp	0x009F
                                   3333 ;src\tarp.c:1507: }
                                   3334 ;src\tarp.c:1511: void ChangePattern(void)
                                   3335 ;	---------------------------------
                                   3336 ; Function ChangePattern
                                   3337 ; ---------------------------------
      00118C                       3338 _ChangePattern::
                                   3339 ;src\tarp.c:1513: _playPatternNumber++;
      00118C FD 21r36r00      [14] 3340 	ld	iy, #__playPatternNumber
      001190 FD 34 00         [23] 3341 	inc	0 (iy)
                                   3342 ;src\tarp.c:1514: if (_playPatternNumber>PATTERN_B) _playPatternNumber=PATTERN_A;
      001193 3E 01            [ 7] 3343 	ld	a, #0x01
      001195 FD 96 00         [19] 3344 	sub	a, 0 (iy)
      001198 30 04            [12] 3345 	jr	NC, 00102$
      00119A FD 36 00 00      [19] 3346 	ld	0 (iy), #0x00
      00119E                       3347 00102$:
                                   3348 ;src\tarp.c:1516: SetPattern(_playPatternNumber);
      00119E 3Ar36r00         [13] 3349 	ld	a, (__playPatternNumber+0)
                                   3350 ;src\tarp.c:1517: }
      0011A1 C3rA4r11         [10] 3351 	jp	_SetPattern
                                   3352 ;src\tarp.c:1521: void SetPattern(char number)
                                   3353 ;	---------------------------------
                                   3354 ; Function SetPattern
                                   3355 ; ---------------------------------
      0011A4                       3356 _SetPattern::
                                   3357 ;src\tarp.c:1523: _playPatternNumber = number;
      0011A4 32r36r00         [13] 3358 	ld	(__playPatternNumber+0), a
                                   3359 ;src\tarp.c:1524: if (number==PATTERN_A) _pattern = (PATTERN *) patternA; 
      0011A7 B7               [ 4] 3360 	or	a, a
      0011A8 20 0F            [12] 3361 	jr	NZ, 00102$
      0011AA FD 21r37r00      [14] 3362 	ld	iy, #__pattern
      0011AE FD 36 00r39      [19] 3363 	ld	0 (iy), #<(_patternA)
      0011B2 FD 36 01s00      [19] 3364 	ld	1 (iy), #>(_patternA)
      0011B6 C3r77r12         [10] 3365 	jp	_ShowPatternRadioButton
      0011B9                       3366 00102$:
                                   3367 ;src\tarp.c:1525: else _pattern = (PATTERN *) patternB;
      0011B9 FD 21r37r00      [14] 3368 	ld	iy, #__pattern
      0011BD FD 36 00r5E      [19] 3369 	ld	0 (iy), #<(_patternB)
      0011C1 FD 36 01s00      [19] 3370 	ld	1 (iy), #>(_patternB)
                                   3371 ;src\tarp.c:1527: ShowPatternRadioButton();
                                   3372 ;src\tarp.c:1528: }
      0011C5 C3r77r12         [10] 3373 	jp	_ShowPatternRadioButton
                                   3374 ;src\tarp.c:1532: void CopyPattern(void)
                                   3375 ;	---------------------------------
                                   3376 ; Function CopyPattern
                                   3377 ; ---------------------------------
      0011C8                       3378 _CopyPattern::
      0011C8 DD E5            [15] 3379 	push	ix
      0011CA DD 21 00 00      [14] 3380 	ld	ix,#0
      0011CE DD 39            [15] 3381 	add	ix,sp
      0011D0 21 FB FF         [10] 3382 	ld	hl, #-5
      0011D3 39               [11] 3383 	add	hl, sp
      0011D4 F9               [ 6] 3384 	ld	sp, hl
                                   3385 ;src\tarp.c:1537: if (_playPatternNumber==PATTERN_A) _destination = (PATTERN *) patternB; 
      0011D5 3Ar36r00         [13] 3386 	ld	a, (__playPatternNumber+0)
      0011D8 B7               [ 4] 3387 	or	a, a
      0011D9 20 05            [12] 3388 	jr	NZ, 00102$
      0011DB 01r5Er00         [10] 3389 	ld	bc, #_patternB+0
      0011DE 18 03            [12] 3390 	jr	00110$
      0011E0                       3391 00102$:
                                   3392 ;src\tarp.c:1538: else _destination = (PATTERN *) patternA;
      0011E0 01r39r00         [10] 3393 	ld	bc, #_patternA
                                   3394 ;src\tarp.c:1540: for(i=0;i<16;i++){
      0011E3                       3395 00110$:
      0011E3 21 05 00         [10] 3396 	ld	hl, #0x0005
      0011E6 09               [11] 3397 	add	hl, bc
      0011E7 E3               [19] 3398 	ex	(sp), hl
      0011E8 21 15 00         [10] 3399 	ld	hl, #0x0015
      0011EB 09               [11] 3400 	add	hl, bc
      0011EC DD 75 FD         [19] 3401 	ld	-3 (ix), l
      0011EF DD 74 FE         [19] 3402 	ld	-2 (ix), h
      0011F2 DD 36 FF 00      [19] 3403 	ld	-1 (ix), #0x00
      0011F6                       3404 00105$:
                                   3405 ;src\tarp.c:1541: _destination->drum[i]=_pattern->drum[i];
      0011F6 DD 7E FB         [19] 3406 	ld	a, -5 (ix)
      0011F9 DD 86 FF         [19] 3407 	add	a, -1 (ix)
      0011FC 5F               [ 4] 3408 	ld	e, a
      0011FD DD 7E FC         [19] 3409 	ld	a, -4 (ix)
      001200 CE 00            [ 7] 3410 	adc	a, #0x00
      001202 57               [ 4] 3411 	ld	d, a
      001203 2Ar37r00         [16] 3412 	ld	hl, (__pattern)
      001206 23               [ 6] 3413 	inc	hl
      001207 23               [ 6] 3414 	inc	hl
      001208 23               [ 6] 3415 	inc	hl
      001209 23               [ 6] 3416 	inc	hl
      00120A 23               [ 6] 3417 	inc	hl
      00120B 7D               [ 4] 3418 	ld	a, l
      00120C DD 86 FF         [19] 3419 	add	a, -1 (ix)
      00120F 6F               [ 4] 3420 	ld	l, a
                                   3421 ;	spillPairReg hl
                                   3422 ;	spillPairReg hl
      001210 30 01            [12] 3423 	jr	NC, 00131$
      001212 24               [ 4] 3424 	inc	h
      001213                       3425 00131$:
      001213 7E               [ 7] 3426 	ld	a, (hl)
      001214 12               [ 7] 3427 	ld	(de), a
                                   3428 ;src\tarp.c:1542: _destination->tone[i]=_pattern->tone[i];
      001215 DD 7E FD         [19] 3429 	ld	a, -3 (ix)
      001218 DD 86 FF         [19] 3430 	add	a, -1 (ix)
      00121B 5F               [ 4] 3431 	ld	e, a
      00121C DD 7E FE         [19] 3432 	ld	a, -2 (ix)
      00121F CE 00            [ 7] 3433 	adc	a, #0x00
      001221 57               [ 4] 3434 	ld	d, a
      001222 2Ar37r00         [16] 3435 	ld	hl, (__pattern)
      001225 D5               [11] 3436 	push	de
      001226 11 15 00         [10] 3437 	ld	de, #0x0015
      001229 19               [11] 3438 	add	hl, de
      00122A D1               [10] 3439 	pop	de
      00122B 7D               [ 4] 3440 	ld	a, l
      00122C DD 86 FF         [19] 3441 	add	a, -1 (ix)
      00122F 6F               [ 4] 3442 	ld	l, a
                                   3443 ;	spillPairReg hl
                                   3444 ;	spillPairReg hl
      001230 30 01            [12] 3445 	jr	NC, 00132$
      001232 24               [ 4] 3446 	inc	h
      001233                       3447 00132$:
      001233 7E               [ 7] 3448 	ld	a, (hl)
      001234 12               [ 7] 3449 	ld	(de), a
                                   3450 ;src\tarp.c:1540: for(i=0;i<16;i++){
      001235 DD 34 FF         [23] 3451 	inc	-1 (ix)
      001238 DD 7E FF         [19] 3452 	ld	a, -1 (ix)
      00123B D6 10            [ 7] 3453 	sub	a, #0x10
      00123D 38 B7            [12] 3454 	jr	C, 00105$
                                   3455 ;src\tarp.c:1545: _destination->octave = _pattern->octave;
      00123F 2Ar37r00         [16] 3456 	ld	hl, (__pattern)
      001242 7E               [ 7] 3457 	ld	a, (hl)
      001243 02               [ 7] 3458 	ld	(bc), a
                                   3459 ;src\tarp.c:1546: _destination->transpose = _pattern->transpose;
      001244 59               [ 4] 3460 	ld	e, c
      001245 50               [ 4] 3461 	ld	d, b
      001246 13               [ 6] 3462 	inc	de
      001247 2Ar37r00         [16] 3463 	ld	hl, (__pattern)
      00124A 23               [ 6] 3464 	inc	hl
      00124B 7E               [ 7] 3465 	ld	a, (hl)
      00124C 12               [ 7] 3466 	ld	(de), a
                                   3467 ;src\tarp.c:1547: _destination->AB_MIX = _pattern->AB_MIX;
      00124D 59               [ 4] 3468 	ld	e, c
      00124E 50               [ 4] 3469 	ld	d, b
      00124F 13               [ 6] 3470 	inc	de
      001250 13               [ 6] 3471 	inc	de
      001251 2Ar37r00         [16] 3472 	ld	hl, (__pattern)
      001254 23               [ 6] 3473 	inc	hl
      001255 23               [ 6] 3474 	inc	hl
      001256 7E               [ 7] 3475 	ld	a, (hl)
      001257 12               [ 7] 3476 	ld	(de), a
                                   3477 ;src\tarp.c:1548: _destination->AB_offset = _pattern->AB_offset;
      001258 59               [ 4] 3478 	ld	e, c
      001259 50               [ 4] 3479 	ld	d, b
      00125A 13               [ 6] 3480 	inc	de
      00125B 13               [ 6] 3481 	inc	de
      00125C 13               [ 6] 3482 	inc	de
      00125D 2Ar37r00         [16] 3483 	ld	hl, (__pattern)
      001260 23               [ 6] 3484 	inc	hl
      001261 23               [ 6] 3485 	inc	hl
      001262 23               [ 6] 3486 	inc	hl
      001263 7E               [ 7] 3487 	ld	a, (hl)
      001264 12               [ 7] 3488 	ld	(de), a
                                   3489 ;src\tarp.c:1549: _destination->Envelope = _pattern->Envelope;
      001265 03               [ 6] 3490 	inc	bc
      001266 03               [ 6] 3491 	inc	bc
      001267 03               [ 6] 3492 	inc	bc
      001268 03               [ 6] 3493 	inc	bc
      001269 2Ar37r00         [16] 3494 	ld	hl, (__pattern)
      00126C 11 04 00         [10] 3495 	ld	de, #0x0004
      00126F 19               [11] 3496 	add	hl, de
      001270 7E               [ 7] 3497 	ld	a, (hl)
      001271 02               [ 7] 3498 	ld	(bc), a
                                   3499 ;src\tarp.c:1551: }
      001272 DD F9            [10] 3500 	ld	sp, ix
      001274 DD E1            [14] 3501 	pop	ix
      001276 C9               [10] 3502 	ret
                                   3503 ;src\tarp.c:1555: void ShowPatternRadioButton(void)
                                   3504 ;	---------------------------------
                                   3505 ; Function ShowPatternRadioButton
                                   3506 ; ---------------------------------
      001277                       3507 _ShowPatternRadioButton::
                                   3508 ;src\tarp.c:1557: if(_playPatternNumber==PATTERN_A){
      001277 3Ar36r00         [13] 3509 	ld	a, (__playPatternNumber+0)
      00127A B7               [ 4] 3510 	or	a, a
      00127B 20 15            [12] 3511 	jr	NZ, 00102$
                                   3512 ;src\tarp.c:1558: VPOKE(GUI_RADIO_A_VADDR,GUI_RADION_ICON);
      00127D 3E DB            [ 7] 3513 	ld	a, #0xdb
      00127F F5               [11] 3514 	push	af
      001280 33               [ 6] 3515 	inc	sp
      001281 21 82 18         [10] 3516 	ld	hl, #0x1882
      001284 CDr00r00         [17] 3517 	call	_VPOKE
                                   3518 ;src\tarp.c:1559: VPOKE(GUI_RADIO_B_VADDR,GUI_RADIOF_ICON);
      001287 3E DA            [ 7] 3519 	ld	a, #0xda
      001289 F5               [11] 3520 	push	af
      00128A 33               [ 6] 3521 	inc	sp
      00128B 21 85 18         [10] 3522 	ld	hl, #0x1885
      00128E CDr00r00         [17] 3523 	call	_VPOKE
      001291 C9               [10] 3524 	ret
      001292                       3525 00102$:
                                   3526 ;src\tarp.c:1561: VPOKE(GUI_RADIO_A_VADDR,GUI_RADIOF_ICON);
      001292 3E DA            [ 7] 3527 	ld	a, #0xda
      001294 F5               [11] 3528 	push	af
      001295 33               [ 6] 3529 	inc	sp
      001296 21 82 18         [10] 3530 	ld	hl, #0x1882
      001299 CDr00r00         [17] 3531 	call	_VPOKE
                                   3532 ;src\tarp.c:1562: VPOKE(GUI_RADIO_B_VADDR,GUI_RADION_ICON);
      00129C 3E DB            [ 7] 3533 	ld	a, #0xdb
      00129E F5               [11] 3534 	push	af
      00129F 33               [ 6] 3535 	inc	sp
      0012A0 21 85 18         [10] 3536 	ld	hl, #0x1885
      0012A3 CDr00r00         [17] 3537 	call	_VPOKE
                                   3538 ;src\tarp.c:1564: }
      0012A6 C9               [10] 3539 	ret
                                   3540 ;src\tarp.c:1569: void genDrumPattern(void)
                                   3541 ;	---------------------------------
                                   3542 ; Function genDrumPattern
                                   3543 ; ---------------------------------
      0012A7                       3544 _genDrumPattern::
      0012A7 DD E5            [15] 3545 	push	ix
      0012A9 DD 21 00 00      [14] 3546 	ld	ix,#0
      0012AD DD 39            [15] 3547 	add	ix,sp
      0012AF F5               [11] 3548 	push	af
      0012B0 3B               [ 6] 3549 	dec	sp
                                   3550 ;src\tarp.c:1574: char conta=0;
                                   3551 ;src\tarp.c:1581: for(i=0;i<16;i++) _pattern->drum[i]=0;
      0012B1 01 00 00         [10] 3552 	ld	bc, #0x0
      0012B4                       3553 00121$:
      0012B4 2Ar37r00         [16] 3554 	ld	hl, (__pattern)
      0012B7 11 05 00         [10] 3555 	ld	de, #0x0005
      0012BA 19               [11] 3556 	add	hl, de
      0012BB 58               [ 4] 3557 	ld	e, b
      0012BC 16 00            [ 7] 3558 	ld	d, #0x00
      0012BE 19               [11] 3559 	add	hl, de
      0012BF 36 00            [10] 3560 	ld	(hl), #0x00
      0012C1 04               [ 4] 3561 	inc	b
      0012C2 78               [ 4] 3562 	ld	a, b
      0012C3 D6 10            [ 7] 3563 	sub	a, #0x10
      0012C5 38 ED            [12] 3564 	jr	C, 00121$
                                   3565 ;src\tarp.c:1583: hits=Rnd(3);  
      0012C7 C5               [11] 3566 	push	bc
      0012C8 3E 03            [ 7] 3567 	ld	a, #0x03
      0012CA CDr75r11         [17] 3568 	call	_Rnd
      0012CD C1               [10] 3569 	pop	bc
      0012CE DD 77 FD         [19] 3570 	ld	-3 (ix), a
                                   3571 ;src\tarp.c:1584: if(hits>0)
      0012D1 B7               [ 4] 3572 	or	a, a
      0012D2 28 2C            [12] 3573 	jr	Z, 00108$
                                   3574 ;src\tarp.c:1587: do{
      0012D4                       3575 00104$:
                                   3576 ;src\tarp.c:1588: conta+=hits;
      0012D4 DD 7E FD         [19] 3577 	ld	a, -3 (ix)
      0012D7 81               [ 4] 3578 	add	a, c
                                   3579 ;src\tarp.c:1589: if(conta<16) _pattern->drum[conta]=3;       
      0012D8 4F               [ 4] 3580 	ld	c, a
      0012D9 D6 10            [ 7] 3581 	sub	a, #0x10
      0012DB 3E 00            [ 7] 3582 	ld	a, #0x00
      0012DD 17               [ 4] 3583 	rla
      0012DE 5F               [ 4] 3584 	ld	e, a
      0012DF B7               [ 4] 3585 	or	a, a
      0012E0 28 1A            [12] 3586 	jr	Z, 00105$
      0012E2 2Ar37r00         [16] 3587 	ld	hl, (__pattern)
      0012E5 7D               [ 4] 3588 	ld	a, l
      0012E6 C6 05            [ 7] 3589 	add	a, #0x05
      0012E8 DD 77 FE         [19] 3590 	ld	-2 (ix), a
      0012EB 7C               [ 4] 3591 	ld	a, h
      0012EC CE 00            [ 7] 3592 	adc	a, #0x00
      0012EE DD 77 FF         [19] 3593 	ld	-1 (ix), a
      0012F1 DD 6E FE         [19] 3594 	ld	l, -2 (ix)
                                   3595 ;	spillPairReg hl
                                   3596 ;	spillPairReg hl
      0012F4 DD 66 FF         [19] 3597 	ld	h, -1 (ix)
                                   3598 ;	spillPairReg hl
                                   3599 ;	spillPairReg hl
      0012F7 06 00            [ 7] 3600 	ld	b, #0x00
      0012F9 09               [11] 3601 	add	hl, bc
      0012FA 36 03            [10] 3602 	ld	(hl), #0x03
      0012FC                       3603 00105$:
                                   3604 ;src\tarp.c:1590: }while(conta<16); 
      0012FC 7B               [ 4] 3605 	ld	a, e
      0012FD B7               [ 4] 3606 	or	a, a
      0012FE 20 D4            [12] 3607 	jr	NZ, 00104$
      001300                       3608 00108$:
                                   3609 ;src\tarp.c:1593: conta=0;
      001300 DD 36 FF 00      [19] 3610 	ld	-1 (ix), #0x00
                                   3611 ;src\tarp.c:1594: kicks=Rnd(3)*2;
      001304 3E 03            [ 7] 3612 	ld	a, #0x03
      001306 CDr75r11         [17] 3613 	call	_Rnd
      001309 87               [ 4] 3614 	add	a, a
      00130A 47               [ 4] 3615 	ld	b, a
                                   3616 ;src\tarp.c:1595: if(kicks>0)
      00130B B7               [ 4] 3617 	or	a, a
      00130C 28 1A            [12] 3618 	jr	Z, 00113$
                                   3619 ;src\tarp.c:1597: do{      
      00130E                       3620 00109$:
                                   3621 ;src\tarp.c:1598: _pattern->drum[conta]=1;
      00130E 2Ar37r00         [16] 3622 	ld	hl, (__pattern)
      001311 11 05 00         [10] 3623 	ld	de, #0x0005
      001314 19               [11] 3624 	add	hl, de
      001315 DD 5E FF         [19] 3625 	ld	e, -1 (ix)
      001318 16 00            [ 7] 3626 	ld	d, #0x00
      00131A 19               [11] 3627 	add	hl, de
      00131B 36 01            [10] 3628 	ld	(hl), #0x01
                                   3629 ;src\tarp.c:1599: conta+=kicks;       
      00131D DD 7E FF         [19] 3630 	ld	a, -1 (ix)
      001320 80               [ 4] 3631 	add	a, b
                                   3632 ;src\tarp.c:1600: }while(conta<16); 
      001321 DD 77 FF         [19] 3633 	ld	-1 (ix), a
      001324 D6 10            [ 7] 3634 	sub	a, #0x10
      001326 38 E6            [12] 3635 	jr	C, 00109$
      001328                       3636 00113$:
                                   3637 ;src\tarp.c:1603: conta=0;
      001328 0E 00            [ 7] 3638 	ld	c, #0x00
                                   3639 ;src\tarp.c:1604: snares=Rnd(3)*4;
      00132A C5               [11] 3640 	push	bc
      00132B 3E 03            [ 7] 3641 	ld	a, #0x03
      00132D CDr75r11         [17] 3642 	call	_Rnd
      001330 C1               [10] 3643 	pop	bc
      001331 87               [ 4] 3644 	add	a, a
      001332 87               [ 4] 3645 	add	a, a
      001333 5F               [ 4] 3646 	ld	e, a
                                   3647 ;src\tarp.c:1605: if(snares>0)
      001334 B7               [ 4] 3648 	or	a, a
      001335 28 1D            [12] 3649 	jr	Z, 00120$
                                   3650 ;src\tarp.c:1607: do{
      001337                       3651 00116$:
                                   3652 ;src\tarp.c:1608: conta+=snares;
      001337 7B               [ 4] 3653 	ld	a, e
      001338 81               [ 4] 3654 	add	a, c
                                   3655 ;src\tarp.c:1609: if(conta<16) _pattern->drum[conta]=2;
      001339 4F               [ 4] 3656 	ld	c, a
      00133A D6 10            [ 7] 3657 	sub	a, #0x10
      00133C 3E 00            [ 7] 3658 	ld	a, #0x00
      00133E 17               [ 4] 3659 	rla
      00133F 57               [ 4] 3660 	ld	d, a
      001340 B7               [ 4] 3661 	or	a, a
      001341 28 0D            [12] 3662 	jr	Z, 00117$
      001343 2Ar37r00         [16] 3663 	ld	hl, (__pattern)
      001346 23               [ 6] 3664 	inc	hl
      001347 23               [ 6] 3665 	inc	hl
      001348 23               [ 6] 3666 	inc	hl
      001349 23               [ 6] 3667 	inc	hl
      00134A 23               [ 6] 3668 	inc	hl
      00134B 06 00            [ 7] 3669 	ld	b, #0x00
      00134D 09               [11] 3670 	add	hl, bc
      00134E 36 02            [10] 3671 	ld	(hl), #0x02
      001350                       3672 00117$:
                                   3673 ;src\tarp.c:1610: }while(conta<16); 
      001350 7A               [ 4] 3674 	ld	a, d
      001351 B7               [ 4] 3675 	or	a, a
      001352 20 E3            [12] 3676 	jr	NZ, 00116$
      001354                       3677 00120$:
                                   3678 ;src\tarp.c:1613: ShowDrumPattern();
      001354 CDr25r14         [17] 3679 	call	_ShowDrumPattern
                                   3680 ;src\tarp.c:1615: }
      001357 DD F9            [10] 3681 	ld	sp, ix
      001359 DD E1            [14] 3682 	pop	ix
      00135B C9               [10] 3683 	ret
                                   3684 ;src\tarp.c:1620: void genTonePattern(void)
                                   3685 ;	---------------------------------
                                   3686 ; Function genTonePattern
                                   3687 ; ---------------------------------
      00135C                       3688 _genTonePattern::
      00135C DD E5            [15] 3689 	push	ix
      00135E DD 21 00 00      [14] 3690 	ld	ix,#0
      001362 DD 39            [15] 3691 	add	ix,sp
      001364 F5               [11] 3692 	push	af
      001365 F5               [11] 3693 	push	af
                                   3694 ;src\tarp.c:1624: char conta=0;
      001366 DD 36 FF 00      [19] 3695 	ld	-1 (ix), #0x00
                                   3696 ;src\tarp.c:1625: char increment=0;
      00136A 0E 00            [ 7] 3697 	ld	c, #0x00
                                   3698 ;src\tarp.c:1629: _pattern->transpose = 12;
      00136C 2Ar37r00         [16] 3699 	ld	hl, (__pattern)
      00136F 23               [ 6] 3700 	inc	hl
      001370 36 0C            [10] 3701 	ld	(hl), #0x0c
                                   3702 ;src\tarp.c:1631: for(i=0;i<16;i++) _pattern->tone[i]=0; //empty
      001372 1E 00            [ 7] 3703 	ld	e, #0x00
      001374                       3704 00111$:
      001374 2Ar37r00         [16] 3705 	ld	hl, (__pattern)
      001377 D5               [11] 3706 	push	de
      001378 11 15 00         [10] 3707 	ld	de, #0x0015
      00137B 19               [11] 3708 	add	hl, de
      00137C D1               [10] 3709 	pop	de
      00137D 16 00            [ 7] 3710 	ld	d, #0x00
      00137F 19               [11] 3711 	add	hl, de
      001380 36 00            [10] 3712 	ld	(hl), #0x00
      001382 1C               [ 4] 3713 	inc	e
      001383 7B               [ 4] 3714 	ld	a, e
      001384 D6 10            [ 7] 3715 	sub	a, #0x10
      001386 38 EC            [12] 3716 	jr	C, 00111$
                                   3717 ;src\tarp.c:1633: type=Rnd(3)+1;  //determines the number of notes
      001388 C5               [11] 3718 	push	bc
      001389 3E 03            [ 7] 3719 	ld	a, #0x03
      00138B CDr75r11         [17] 3720 	call	_Rnd
      00138E C1               [10] 3721 	pop	bc
                                   3722 ;src\tarp.c:1635: if (type==2) increment=4;
      00138F 3C               [ 4] 3723 	inc	a
      001390 47               [ 4] 3724 	ld	b, a
      001391 D6 02            [ 7] 3725 	sub	a, #0x02
      001393 20 02            [12] 3726 	jr	NZ, 00103$
      001395 0E 04            [ 7] 3727 	ld	c, #0x04
      001397                       3728 00103$:
                                   3729 ;src\tarp.c:1636: if (type>2) increment=2;
      001397 3E 02            [ 7] 3730 	ld	a, #0x02
      001399 90               [ 4] 3731 	sub	a, b
      00139A 30 02            [12] 3732 	jr	NC, 00105$
      00139C 0E 02            [ 7] 3733 	ld	c, #0x02
      00139E                       3734 00105$:
                                   3735 ;src\tarp.c:1638: type++;
      00139E 04               [ 4] 3736 	inc	b
                                   3737 ;src\tarp.c:1639: for(i=1;i<type;i++)
      00139F 1E 01            [ 7] 3738 	ld	e, #0x01
      0013A1                       3739 00114$:
      0013A1 7B               [ 4] 3740 	ld	a, e
      0013A2 90               [ 4] 3741 	sub	a, b
      0013A3 30 49            [12] 3742 	jr	NC, 00109$
                                   3743 ;src\tarp.c:1641: value=Rnd(15);    // generate random note
      0013A5 C5               [11] 3744 	push	bc
      0013A6 D5               [11] 3745 	push	de
      0013A7 3E 0F            [ 7] 3746 	ld	a, #0x0f
      0013A9 CDr75r11         [17] 3747 	call	_Rnd
      0013AC DD 77 FC         [19] 3748 	ld	-4 (ix), a
      0013AF D1               [10] 3749 	pop	de
      0013B0 C1               [10] 3750 	pop	bc
                                   3751 ;src\tarp.c:1629: _pattern->transpose = 12;
      0013B1 2Ar37r00         [16] 3752 	ld	hl, (__pattern)
                                   3753 ;src\tarp.c:1642: if(value>11) _pattern->tone[conta]=0;  //empty
      0013B4 D5               [11] 3754 	push	de
      0013B5 11 15 00         [10] 3755 	ld	de, #0x0015
      0013B8 19               [11] 3756 	add	hl, de
      0013B9 D1               [10] 3757 	pop	de
      0013BA 7D               [ 4] 3758 	ld	a, l
      0013BB DD 86 FF         [19] 3759 	add	a, -1 (ix)
      0013BE DD 77 FD         [19] 3760 	ld	-3 (ix), a
      0013C1 7C               [ 4] 3761 	ld	a, h
      0013C2 CE 00            [ 7] 3762 	adc	a, #0x00
      0013C4 DD 77 FE         [19] 3763 	ld	-2 (ix), a
      0013C7 3E 0B            [ 7] 3764 	ld	a, #0x0b
      0013C9 DD 96 FC         [19] 3765 	sub	a, -4 (ix)
      0013CC 30 0A            [12] 3766 	jr	NC, 00107$
      0013CE DD 6E FD         [19] 3767 	ld	l, -3 (ix)
      0013D1 DD 66 FE         [19] 3768 	ld	h, -2 (ix)
      0013D4 36 00            [10] 3769 	ld	(hl), #0x00
      0013D6 18 0C            [12] 3770 	jr	00108$
      0013D8                       3771 00107$:
                                   3772 ;src\tarp.c:1643: else _pattern->tone[conta]=value+1+12; //adds an octave (12) for the transpose functionality    
      0013D8 DD 7E FC         [19] 3773 	ld	a, -4 (ix)
      0013DB C6 0D            [ 7] 3774 	add	a, #0x0d
      0013DD DD 6E FD         [19] 3775 	ld	l, -3 (ix)
      0013E0 DD 66 FE         [19] 3776 	ld	h, -2 (ix)
      0013E3 77               [ 7] 3777 	ld	(hl), a
      0013E4                       3778 00108$:
                                   3779 ;src\tarp.c:1644: conta=conta+increment;
      0013E4 DD 7E FF         [19] 3780 	ld	a, -1 (ix)
      0013E7 81               [ 4] 3781 	add	a, c
      0013E8 DD 77 FF         [19] 3782 	ld	-1 (ix), a
                                   3783 ;src\tarp.c:1639: for(i=1;i<type;i++)
      0013EB 1C               [ 4] 3784 	inc	e
      0013EC 18 B3            [12] 3785 	jr	00114$
      0013EE                       3786 00109$:
                                   3787 ;src\tarp.c:1648: for(i=0;i<8;i++) _pattern->tone[i+8]=_pattern->tone[i];
      0013EE 0E 00            [ 7] 3788 	ld	c, #0x00
      0013F0                       3789 00116$:
                                   3790 ;src\tarp.c:1629: _pattern->transpose = 12;
      0013F0 2Ar37r00         [16] 3791 	ld	hl, (__pattern)
                                   3792 ;src\tarp.c:1642: if(value>11) _pattern->tone[conta]=0;  //empty
      0013F3 11 15 00         [10] 3793 	ld	de, #0x0015
      0013F6 19               [11] 3794 	add	hl, de
                                   3795 ;src\tarp.c:1648: for(i=0;i<8;i++) _pattern->tone[i+8]=_pattern->tone[i];
      0013F7 79               [ 4] 3796 	ld	a, c
      0013F8 C6 08            [ 7] 3797 	add	a, #0x08
      0013FA 85               [ 4] 3798 	add	a, l
      0013FB 5F               [ 4] 3799 	ld	e, a
      0013FC 3E 00            [ 7] 3800 	ld	a, #0x00
      0013FE 8C               [ 4] 3801 	adc	a, h
      0013FF 57               [ 4] 3802 	ld	d, a
      001400 06 00            [ 7] 3803 	ld	b, #0x00
      001402 09               [11] 3804 	add	hl, bc
      001403 7E               [ 7] 3805 	ld	a, (hl)
      001404 12               [ 7] 3806 	ld	(de), a
      001405 0C               [ 4] 3807 	inc	c
      001406 79               [ 4] 3808 	ld	a, c
      001407 D6 08            [ 7] 3809 	sub	a, #0x08
      001409 38 E5            [12] 3810 	jr	C, 00116$
                                   3811 ;src\tarp.c:1650: ShowTonePattern();
      00140B CDr4Br14         [17] 3812 	call	_ShowTonePattern
                                   3813 ;src\tarp.c:1651: }
      00140E DD F9            [10] 3814 	ld	sp, ix
      001410 DD E1            [14] 3815 	pop	ix
      001412 C9               [10] 3816 	ret
                                   3817 ;src\tarp.c:1655: void ShowPattern(void)
                                   3818 ;	---------------------------------
                                   3819 ; Function ShowPattern
                                   3820 ; ---------------------------------
      001413                       3821 _ShowPattern::
                                   3822 ;src\tarp.c:1657: showOctave();
      001413 CDrB4r14         [17] 3823 	call	_showOctave
                                   3824 ;src\tarp.c:1658: showABmix();
      001416 CDrC6r14         [17] 3825 	call	_showABmix
                                   3826 ;src\tarp.c:1659: showABoffset();
      001419 CDrD5r14         [17] 3827 	call	_showABoffset
                                   3828 ;src\tarp.c:1660: showEnv();
      00141C CDrFBr16         [17] 3829 	call	_showEnv
                                   3830 ;src\tarp.c:1662: ShowDrumPattern();
      00141F CDr25r14         [17] 3831 	call	_ShowDrumPattern
                                   3832 ;src\tarp.c:1663: ShowTonePattern();
                                   3833 ;src\tarp.c:1664: }
      001422 C3r4Br14         [10] 3834 	jp	_ShowTonePattern
                                   3835 ;src\tarp.c:1669: void ShowDrumPattern(void)
                                   3836 ;	---------------------------------
                                   3837 ; Function ShowDrumPattern
                                   3838 ; ---------------------------------
      001425                       3839 _ShowDrumPattern::
                                   3840 ;src\tarp.c:1674: for (i=0;i<16;i++) VPOKE(vaddr++,_pattern->drum[i]+GUI_SEQ_INSTR);
      001425 01 CE 1A         [10] 3841 	ld	bc, #0x1ace
      001428 1E 00            [ 7] 3842 	ld	e, #0x00
      00142A                       3843 00102$:
      00142A 2Ar37r00         [16] 3844 	ld	hl, (__pattern)
      00142D 23               [ 6] 3845 	inc	hl
      00142E 23               [ 6] 3846 	inc	hl
      00142F 23               [ 6] 3847 	inc	hl
      001430 23               [ 6] 3848 	inc	hl
      001431 23               [ 6] 3849 	inc	hl
      001432 16 00            [ 7] 3850 	ld	d, #0x00
      001434 19               [11] 3851 	add	hl, de
      001435 7E               [ 7] 3852 	ld	a, (hl)
      001436 C6 D1            [ 7] 3853 	add	a, #0xd1
      001438 69               [ 4] 3854 	ld	l, c
                                   3855 ;	spillPairReg hl
                                   3856 ;	spillPairReg hl
      001439 60               [ 4] 3857 	ld	h, b
                                   3858 ;	spillPairReg hl
                                   3859 ;	spillPairReg hl
      00143A 03               [ 6] 3860 	inc	bc
      00143B C5               [11] 3861 	push	bc
      00143C D5               [11] 3862 	push	de
      00143D F5               [11] 3863 	push	af
      00143E 33               [ 6] 3864 	inc	sp
      00143F CDr00r00         [17] 3865 	call	_VPOKE
      001442 D1               [10] 3866 	pop	de
      001443 C1               [10] 3867 	pop	bc
      001444 1C               [ 4] 3868 	inc	e
      001445 7B               [ 4] 3869 	ld	a, e
      001446 D6 10            [ 7] 3870 	sub	a, #0x10
      001448 38 E0            [12] 3871 	jr	C, 00102$
                                   3872 ;src\tarp.c:1676: }
      00144A C9               [10] 3873 	ret
                                   3874 ;src\tarp.c:1681: void ShowTonePattern(void)
                                   3875 ;	---------------------------------
                                   3876 ; Function ShowTonePattern
                                   3877 ; ---------------------------------
      00144B                       3878 _ShowTonePattern::
      00144B DD E5            [15] 3879 	push	ix
      00144D DD 21 00 00      [14] 3880 	ld	ix,#0
      001451 DD 39            [15] 3881 	add	ix,sp
      001453 F5               [11] 3882 	push	af
                                   3883 ;src\tarp.c:1683: uint vaddr = GUI_SEQ_TONE_VADDR;
      001454 01 EE 1A         [10] 3884 	ld	bc, #0x1aee
                                   3885 ;src\tarp.c:1686: for (i=0;i<16;i++){
      001457 1E 00            [ 7] 3886 	ld	e, #0x00
      001459                       3887 00105$:
                                   3888 ;src\tarp.c:1687: if(_pattern->tone[i]==0) VPOKE(vaddr++,GUI_SEQ_INSTR);
      001459 2Ar37r00         [16] 3889 	ld	hl, (__pattern)
      00145C D5               [11] 3890 	push	de
      00145D 11 15 00         [10] 3891 	ld	de, #0x0015
      001460 19               [11] 3892 	add	hl, de
      001461 D1               [10] 3893 	pop	de
      001462 16 00            [ 7] 3894 	ld	d, #0x00
      001464 19               [11] 3895 	add	hl, de
      001465 56               [ 7] 3896 	ld	d, (hl)
      001466 69               [ 4] 3897 	ld	l, c
      001467 60               [ 4] 3898 	ld	h, b
      001468 23               [ 6] 3899 	inc	hl
      001469 E3               [19] 3900 	ex	(sp), hl
      00146A 7A               [ 4] 3901 	ld	a, d
      00146B B7               [ 4] 3902 	or	a, a
      00146C 20 11            [12] 3903 	jr	NZ, 00102$
      00146E 69               [ 4] 3904 	ld	l, c
                                   3905 ;	spillPairReg hl
                                   3906 ;	spillPairReg hl
      00146F 60               [ 4] 3907 	ld	h, b
                                   3908 ;	spillPairReg hl
                                   3909 ;	spillPairReg hl
      001470 C1               [10] 3910 	pop	bc
      001471 C5               [11] 3911 	push	bc
      001472 C5               [11] 3912 	push	bc
      001473 D5               [11] 3913 	push	de
      001474 3E D1            [ 7] 3914 	ld	a, #0xd1
      001476 F5               [11] 3915 	push	af
      001477 33               [ 6] 3916 	inc	sp
      001478 CDr00r00         [17] 3917 	call	_VPOKE
      00147B D1               [10] 3918 	pop	de
      00147C C1               [10] 3919 	pop	bc
      00147D 18 0F            [12] 3920 	jr	00106$
      00147F                       3921 00102$:
                                   3922 ;src\tarp.c:1688: else VPOKE(vaddr++,GUI_SEQ_TONE);
      00147F 69               [ 4] 3923 	ld	l, c
                                   3924 ;	spillPairReg hl
                                   3925 ;	spillPairReg hl
      001480 60               [ 4] 3926 	ld	h, b
                                   3927 ;	spillPairReg hl
                                   3928 ;	spillPairReg hl
      001481 C1               [10] 3929 	pop	bc
      001482 C5               [11] 3930 	push	bc
      001483 C5               [11] 3931 	push	bc
      001484 D5               [11] 3932 	push	de
      001485 3E D5            [ 7] 3933 	ld	a, #0xd5
      001487 F5               [11] 3934 	push	af
      001488 33               [ 6] 3935 	inc	sp
      001489 CDr00r00         [17] 3936 	call	_VPOKE
      00148C D1               [10] 3937 	pop	de
      00148D C1               [10] 3938 	pop	bc
      00148E                       3939 00106$:
                                   3940 ;src\tarp.c:1686: for (i=0;i<16;i++){
      00148E 1C               [ 4] 3941 	inc	e
      00148F 7B               [ 4] 3942 	ld	a, e
      001490 D6 10            [ 7] 3943 	sub	a, #0x10
      001492 38 C5            [12] 3944 	jr	C, 00105$
                                   3945 ;src\tarp.c:1690: }
      001494 DD F9            [10] 3946 	ld	sp, ix
      001496 DD E1            [14] 3947 	pop	ix
      001498 C9               [10] 3948 	ret
                                   3949 ;src\tarp.c:1694: void upOctave(void)
                                   3950 ;	---------------------------------
                                   3951 ; Function upOctave
                                   3952 ; ---------------------------------
      001499                       3953 _upOctave::
                                   3954 ;src\tarp.c:1696: if (_pattern->octave>0) _pattern->octave--;
      001499 2Ar37r00         [16] 3955 	ld	hl, (__pattern)
      00149C 7E               [ 7] 3956 	ld	a, (hl)
      00149D B7               [ 4] 3957 	or	a, a
      00149E CArB4r14         [10] 3958 	jp	Z,_showOctave
      0014A1 3D               [ 4] 3959 	dec	a
      0014A2 77               [ 7] 3960 	ld	(hl), a
                                   3961 ;src\tarp.c:1698: showOctave();
                                   3962 ;src\tarp.c:1699: }
      0014A3 C3rB4r14         [10] 3963 	jp	_showOctave
                                   3964 ;src\tarp.c:1703: void downOctave(void)
                                   3965 ;	---------------------------------
                                   3966 ; Function downOctave
                                   3967 ; ---------------------------------
      0014A6                       3968 _downOctave::
                                   3969 ;src\tarp.c:1705: if (_pattern->octave<5) _pattern->octave++;
      0014A6 2Ar37r00         [16] 3970 	ld	hl, (__pattern)
      0014A9 7E               [ 7] 3971 	ld	a, (hl)
      0014AA FE 05            [ 7] 3972 	cp	a, #0x05
      0014AC D2rB4r14         [10] 3973 	jp	NC,_showOctave
      0014AF 3C               [ 4] 3974 	inc	a
      0014B0 77               [ 7] 3975 	ld	(hl), a
                                   3976 ;src\tarp.c:1707: showOctave();
                                   3977 ;src\tarp.c:1708: }
      0014B1 C3rB4r14         [10] 3978 	jp	_showOctave
                                   3979 ;src\tarp.c:1712: void showOctave(void)
                                   3980 ;	---------------------------------
                                   3981 ; Function showOctave
                                   3982 ; ---------------------------------
      0014B4                       3983 _showOctave::
                                   3984 ;src\tarp.c:1714: VPrintNum(GUI_OCTA_VADDR, _pattern->octave+1, 1);
      0014B4 2Ar37r00         [16] 3985 	ld	hl, (__pattern)
      0014B7 5E               [ 7] 3986 	ld	e, (hl)
      0014B8 16 00            [ 7] 3987 	ld	d, #0x00
      0014BA 13               [ 6] 3988 	inc	de
      0014BB 3E 01            [ 7] 3989 	ld	a, #0x01
      0014BD F5               [11] 3990 	push	af
      0014BE 33               [ 6] 3991 	inc	sp
      0014BF 21 68 1A         [10] 3992 	ld	hl, #0x1a68
      0014C2 CDr39r16         [17] 3993 	call	_VPrintNum
                                   3994 ;src\tarp.c:1715: }
      0014C5 C9               [10] 3995 	ret
                                   3996 ;src\tarp.c:1719: void showABmix(void)
                                   3997 ;	---------------------------------
                                   3998 ; Function showABmix
                                   3999 ; ---------------------------------
      0014C6                       4000 _showABmix::
                                   4001 ;src\tarp.c:1721: GUI_switcher(GUI_ABMIX_VADDR,_pattern->AB_MIX);
      0014C6 2Ar37r00         [16] 4002 	ld	hl, (__pattern)
      0014C9 23               [ 6] 4003 	inc	hl
      0014CA 23               [ 6] 4004 	inc	hl
      0014CB 7E               [ 7] 4005 	ld	a, (hl)
      0014CC F5               [11] 4006 	push	af
      0014CD 33               [ 6] 4007 	inc	sp
      0014CE 21 C9 19         [10] 4008 	ld	hl, #0x19c9
      0014D1 CDrC1r16         [17] 4009 	call	_GUI_switcher
                                   4010 ;src\tarp.c:1722: }
      0014D4 C9               [10] 4011 	ret
                                   4012 ;src\tarp.c:1726: void showABoffset(void)
                                   4013 ;	---------------------------------
                                   4014 ; Function showABoffset
                                   4015 ; ---------------------------------
      0014D5                       4016 _showABoffset::
                                   4017 ;src\tarp.c:1728: VPrintNum(GUI_OFFS_VADDR, _pattern->AB_offset, 3);
      0014D5 2Ar37r00         [16] 4018 	ld	hl, (__pattern)
      0014D8 23               [ 6] 4019 	inc	hl
      0014D9 23               [ 6] 4020 	inc	hl
      0014DA 23               [ 6] 4021 	inc	hl
      0014DB 5E               [ 7] 4022 	ld	e, (hl)
      0014DC 16 00            [ 7] 4023 	ld	d, #0x00
      0014DE 3E 03            [ 7] 4024 	ld	a, #0x03
      0014E0 F5               [11] 4025 	push	af
      0014E1 33               [ 6] 4026 	inc	sp
      0014E2 21 E6 19         [10] 4027 	ld	hl, #0x19e6
      0014E5 CDr39r16         [17] 4028 	call	_VPrintNum
                                   4029 ;src\tarp.c:1729: }
      0014E8 C9               [10] 4030 	ret
                                   4031 ;src\tarp.c:1734: void TransposeUp(void)
                                   4032 ;	---------------------------------
                                   4033 ; Function TransposeUp
                                   4034 ; ---------------------------------
      0014E9                       4035 _TransposeUp::
                                   4036 ;src\tarp.c:1739: if (_pattern->transpose<24)
      0014E9 2Ar37r00         [16] 4037 	ld	hl, (__pattern)
      0014EC 23               [ 6] 4038 	inc	hl
      0014ED 7E               [ 7] 4039 	ld	a, (hl)
      0014EE FE 18            [ 7] 4040 	cp	a, #0x18
      0014F0 D0               [11] 4041 	ret	NC
                                   4042 ;src\tarp.c:1741: _pattern->transpose++;
      0014F1 3C               [ 4] 4043 	inc	a
      0014F2 77               [ 7] 4044 	ld	(hl), a
                                   4045 ;src\tarp.c:1743: for(i=0;i<16;i++)
      0014F3 0E 00            [ 7] 4046 	ld	c, #0x00
      0014F5                       4047 00106$:
                                   4048 ;src\tarp.c:1739: if (_pattern->transpose<24)
      0014F5 2Ar37r00         [16] 4049 	ld	hl, (__pattern)
                                   4050 ;src\tarp.c:1745: value = _pattern->tone[i];
      0014F8 11 15 00         [10] 4051 	ld	de, #0x0015
      0014FB 19               [11] 4052 	add	hl, de
      0014FC 59               [ 4] 4053 	ld	e, c
      0014FD 16 00            [ 7] 4054 	ld	d, #0x00
      0014FF 19               [11] 4055 	add	hl, de
      001500 7E               [ 7] 4056 	ld	a, (hl)
                                   4057 ;src\tarp.c:1746: if(value>0) _pattern->tone[i]++;
      001501 B7               [ 4] 4058 	or	a, a
      001502 28 02            [12] 4059 	jr	Z, 00107$
      001504 3C               [ 4] 4060 	inc	a
      001505 77               [ 7] 4061 	ld	(hl), a
      001506                       4062 00107$:
                                   4063 ;src\tarp.c:1743: for(i=0;i<16;i++)
      001506 0C               [ 4] 4064 	inc	c
      001507 79               [ 4] 4065 	ld	a, c
      001508 D6 10            [ 7] 4066 	sub	a, #0x10
      00150A 38 E9            [12] 4067 	jr	C, 00106$
                                   4068 ;src\tarp.c:1750: }
      00150C C9               [10] 4069 	ret
                                   4070 ;src\tarp.c:1755: void TransposeDown(void)
                                   4071 ;	---------------------------------
                                   4072 ; Function TransposeDown
                                   4073 ; ---------------------------------
      00150D                       4074 _TransposeDown::
                                   4075 ;src\tarp.c:1761: if (_pattern->transpose>0)
      00150D 2Ar37r00         [16] 4076 	ld	hl, (__pattern)
      001510 23               [ 6] 4077 	inc	hl
      001511 7E               [ 7] 4078 	ld	a, (hl)
      001512 B7               [ 4] 4079 	or	a, a
      001513 C8               [11] 4080 	ret	Z
                                   4081 ;src\tarp.c:1763: _pattern->transpose--;    
      001514 3D               [ 4] 4082 	dec	a
      001515 77               [ 7] 4083 	ld	(hl), a
                                   4084 ;src\tarp.c:1765: for(i=0;i<16;i++)
      001516 0E 00            [ 7] 4085 	ld	c, #0x00
      001518                       4086 00106$:
                                   4087 ;src\tarp.c:1761: if (_pattern->transpose>0)
      001518 2Ar37r00         [16] 4088 	ld	hl, (__pattern)
                                   4089 ;src\tarp.c:1767: value = _pattern->tone[i];
      00151B 11 15 00         [10] 4090 	ld	de, #0x0015
      00151E 19               [11] 4091 	add	hl, de
      00151F 59               [ 4] 4092 	ld	e, c
      001520 16 00            [ 7] 4093 	ld	d, #0x00
      001522 19               [11] 4094 	add	hl, de
      001523 7E               [ 7] 4095 	ld	a, (hl)
                                   4096 ;src\tarp.c:1768: if(value>0) _pattern->tone[i]--;
      001524 B7               [ 4] 4097 	or	a, a
      001525 28 02            [12] 4098 	jr	Z, 00107$
      001527 3D               [ 4] 4099 	dec	a
      001528 77               [ 7] 4100 	ld	(hl), a
      001529                       4101 00107$:
                                   4102 ;src\tarp.c:1765: for(i=0;i<16;i++)
      001529 0C               [ 4] 4103 	inc	c
      00152A 79               [ 4] 4104 	ld	a, c
      00152B D6 10            [ 7] 4105 	sub	a, #0x10
      00152D 38 E9            [12] 4106 	jr	C, 00106$
                                   4107 ;src\tarp.c:1771: }
      00152F C9               [10] 4108 	ret
                                   4109 ;src\tarp.c:1783: unsigned int getFreq(char value) __naked
                                   4110 ;	---------------------------------
                                   4111 ; Function getFreq
                                   4112 ; ---------------------------------
      001530                       4113 _getFreq::
                                   4114 ;src\tarp.c:1818: __endasm;
      001530 87               [ 4] 4115 	add	A
      001531 16 00            [ 7] 4116 	ld	D,#0
      001533 5F               [ 4] 4117 	ld	E,A
      001534 FD 21r41r15      [14] 4118 	ld	IY,#VNOTAS
      001538 FD 19            [15] 4119 	add	IY,DE
      00153A FD 5E 00         [19] 4120 	ld	E,(IY)
      00153D FD 56 01         [19] 4121 	ld	D,1(IY)
      001540 C9               [10] 4122 	ret
      001541                       4123 VNOTAS:
      001541 00 00                 4124 	.dw	0
                                   4125 ;	Octava 0 (0)
      001543 5D 0D 9C 0C E7 0B 3C  4126 	.dw	0x0D5D,0x0C9C,0x0BE7,0x0B3C,0x0A9B,0x0A02,0x0973,0x08EB,0x086B,0x07F2,0x0780,0x0714
             0B 9B 0A 02 0A 73 09
             EB 08 6B 08 F2 07 80
             07 14 07
                                   4127 ;	Octava 1 (24)
      00155B AE 06 4E 06 F4 05 9E  4128 	.dw	0x06AE,0x064E,0x05F4,0x059E,0x054D,0x0501,0x04B9,0x0475,0x0435,0x03F9,0x03C0,0x038A
             05 4D 05 01 05 B9 04
             75 04 35 04 F9 03 C0
             03 8A 03
                                   4129 ;	Octava 2 (48)
      001573 57 03 27 03 FA 02 CF  4130 	.dw	0x0357,0x0327,0x02FA,0x02CF,0x02AF,0x0281,0x025D,0x023B,0x021B,0x01FC,0x01E0,0x01C5
             02 AF 02 81 02 5D 02
             3B 02 1B 02 FC 01 E0
             01 C5 01
                                   4131 ;	Octava 3 (72)
      00158B AC 01 94 01 7D 01 68  4132 	.dw	0x01AC,0x0194,0x017D,0x0168,0x0153,0x0140,0x012E,0x011D,0x010D,0x00FE,0x00F0,0x00E2
             01 53 01 40 01 2E 01
             1D 01 0D 01 FE 00 F0
             00 E2 00
                                   4133 ;	Octava 4 (96)
      0015A3 D6 00 CA 00 BE 00 B4  4134 	.dw	0x00D6,0x00CA,0x00BE,0x00B4,0x00AA,0x00A0,0x0097,0x008F,0x0087,0x007F,0x0078,0x0071
             00 AA 00 A0 00 97 00
             8F 00 87 00 7F 00 78
             00 71 00
                                   4135 ;	Octava 5 (120)
      0015BB 6B 00 65 00 5F 00 5A  4136 	.dw	0x006B,0x0065,0x005F,0x005A,0x0055,0x0050,0x004C,0x0047,0x0043,0x0040,0x003B,0x0039
             00 55 00 50 00 4C 00
             47 00 43 00 40 00 3B
             00 39 00
                                   4137 ;	Octava 6 (144)
      0015D3 35 00 32 00 30 00 2D  4138 	.dw	0x0035,0x0032,0x0030,0x002D,0x002A,0x0028,0x0026,0x0024,0x0022,0x0020,0x001E,0x001C
             00 2A 00 28 00 26 00
             24 00 22 00 20 00 1E
             00 1C 00
                                   4139 ;	Octava 7 (168)
      0015EB 1B 00 19 00 18 00 16  4140 	.dw	0x001B,0x0019,0x0018,0x0016,0x0015,0x0014,0x0013,0x0012,0x0011,0x0010,0x000F,0x000E
             00 15 00 14 00 13 00
             12 00 11 00 10 00 0F
             00 0E 00
                                   4141 ;src\tarp.c:1819: }
                                   4142 ;src\tarp.c:1832: uint GetVAddressByPosition(char column, char line)
                                   4143 ;	---------------------------------
                                   4144 ; Function GetVAddressByPosition
                                   4145 ; ---------------------------------
      001603                       4146 _GetVAddressByPosition::
      001603 4F               [ 4] 4147 	ld	c, a
                                   4148 ;src\tarp.c:1834: return BASE10 + (line*32)+column;
      001604 26 00            [ 7] 4149 	ld	h, #0x00
                                   4150 ;	spillPairReg hl
                                   4151 ;	spillPairReg hl
      001606 29               [11] 4152 	add	hl, hl
      001607 29               [11] 4153 	add	hl, hl
      001608 29               [11] 4154 	add	hl, hl
      001609 29               [11] 4155 	add	hl, hl
      00160A 29               [11] 4156 	add	hl, hl
      00160B 11 00 18         [10] 4157 	ld	de, #0x1800
      00160E 19               [11] 4158 	add	hl, de
      00160F 06 00            [ 7] 4159 	ld	b, #0x00
      001611 09               [11] 4160 	add	hl, bc
      001612 EB               [ 4] 4161 	ex	de, hl
                                   4162 ;src\tarp.c:1835: }
      001613 C9               [10] 4163 	ret
                                   4164 ;src\tarp.c:1839: void VPRINT(char column, char line, char* text)
                                   4165 ;	---------------------------------
                                   4166 ; Function VPRINT
                                   4167 ; ---------------------------------
      001614                       4168 _VPRINT::
                                   4169 ;src\tarp.c:1841: unsigned int vaddr = GetVAddressByPosition(column, line);
      001614 CDr03r16         [17] 4170 	call	_GetVAddressByPosition
      001617 4B               [ 4] 4171 	ld	c, e
      001618 42               [ 4] 4172 	ld	b, d
                                   4173 ;src\tarp.c:1842: VPokeString(vaddr,text);
      001619 E1               [10] 4174 	pop	hl
      00161A D1               [10] 4175 	pop	de
      00161B D5               [11] 4176 	push	de
      00161C E5               [11] 4177 	push	hl
      00161D 69               [ 4] 4178 	ld	l, c
                                   4179 ;	spillPairReg hl
                                   4180 ;	spillPairReg hl
      00161E 60               [ 4] 4181 	ld	h, b
                                   4182 ;	spillPairReg hl
                                   4183 ;	spillPairReg hl
      00161F CDr25r16         [17] 4184 	call	_VPokeString
                                   4185 ;src\tarp.c:1843: }
      001622 E1               [10] 4186 	pop	hl
      001623 F1               [10] 4187 	pop	af
      001624 E9               [ 4] 4188 	jp	(hl)
                                   4189 ;src\tarp.c:1846: void VPokeString(unsigned int vaddr, char* text)
                                   4190 ;	---------------------------------
                                   4191 ; Function VPokeString
                                   4192 ; ---------------------------------
      001625                       4193 _VPokeString::
      001625 4D               [ 4] 4194 	ld	c, l
      001626 44               [ 4] 4195 	ld	b, h
                                   4196 ;src\tarp.c:1848: while(*(text)) VPOKE(vaddr++,*(text++));
      001627                       4197 00101$:
      001627 1A               [ 7] 4198 	ld	a, (de)
      001628 B7               [ 4] 4199 	or	a, a
      001629 C8               [11] 4200 	ret	Z
      00162A 13               [ 6] 4201 	inc	de
      00162B 69               [ 4] 4202 	ld	l, c
                                   4203 ;	spillPairReg hl
                                   4204 ;	spillPairReg hl
      00162C 60               [ 4] 4205 	ld	h, b
                                   4206 ;	spillPairReg hl
                                   4207 ;	spillPairReg hl
      00162D 03               [ 6] 4208 	inc	bc
      00162E C5               [11] 4209 	push	bc
      00162F D5               [11] 4210 	push	de
      001630 F5               [11] 4211 	push	af
      001631 33               [ 6] 4212 	inc	sp
      001632 CDr00r00         [17] 4213 	call	_VPOKE
      001635 D1               [10] 4214 	pop	de
      001636 C1               [10] 4215 	pop	bc
                                   4216 ;src\tarp.c:1849: }
      001637 18 EE            [12] 4217 	jr	00101$
                                   4218 ;src\tarp.c:1868: void VPrintNum(unsigned int vaddr, unsigned int value, char length)
                                   4219 ;	---------------------------------
                                   4220 ; Function VPrintNum
                                   4221 ; ---------------------------------
      001639                       4222 _VPrintNum::
      001639 DD E5            [15] 4223 	push	ix
      00163B DD 21 00 00      [14] 4224 	ld	ix,#0
      00163F DD 39            [15] 4225 	add	ix,sp
      001641 FD 21 F8 FF      [14] 4226 	ld	iy, #-8
      001645 FD 39            [15] 4227 	add	iy, sp
      001647 FD F9            [10] 4228 	ld	sp, iy
      001649 DD 75 FE         [19] 4229 	ld	-2 (ix), l
      00164C DD 74 FF         [19] 4230 	ld	-1 (ix), h
      00164F 4B               [ 4] 4231 	ld	c, e
      001650 42               [ 4] 4232 	ld	b, d
                                   4233 ;src\tarp.c:1871: char text[]="     ";
      001651 DD 36 F8 20      [19] 4234 	ld	-8 (ix), #0x20
      001655 DD 36 F9 20      [19] 4235 	ld	-7 (ix), #0x20
      001659 DD 36 FA 20      [19] 4236 	ld	-6 (ix), #0x20
      00165D DD 36 FB 20      [19] 4237 	ld	-5 (ix), #0x20
      001661 DD 36 FC 20      [19] 4238 	ld	-4 (ix), #0x20
      001665 DD 36 FD 00      [19] 4239 	ld	-3 (ix), #0x00
                                   4240 ;src\tarp.c:1873: num2Dec16(value, text); 
      001669 21 00 00         [10] 4241 	ld	hl, #0
      00166C 39               [11] 4242 	add	hl, sp
      00166D EB               [ 4] 4243 	ex	de, hl
      00166E 69               [ 4] 4244 	ld	l, c
                                   4245 ;	spillPairReg hl
                                   4246 ;	spillPairReg hl
      00166F 60               [ 4] 4247 	ld	h, b
                                   4248 ;	spillPairReg hl
                                   4249 ;	spillPairReg hl
      001670 CDr9Ar16         [17] 4250 	call	_num2Dec16
                                   4251 ;src\tarp.c:1876: CopyToVRAM((unsigned int) text + (5-length), vaddr, length);
      001673 DD 4E 04         [19] 4252 	ld	c, 4 (ix)
      001676 06 00            [ 7] 4253 	ld	b, #0x00
      001678 21 00 00         [10] 4254 	ld	hl, #0
      00167B 39               [11] 4255 	add	hl, sp
      00167C DD 5E 04         [19] 4256 	ld	e, 4 (ix)
      00167F 16 00            [ 7] 4257 	ld	d, #0x00
      001681 3E 05            [ 7] 4258 	ld	a, #0x05
      001683 93               [ 4] 4259 	sub	a, e
      001684 5F               [ 4] 4260 	ld	e, a
      001685 9F               [ 4] 4261 	sbc	a, a
      001686 92               [ 4] 4262 	sub	a, d
      001687 57               [ 4] 4263 	ld	d, a
      001688 19               [11] 4264 	add	hl, de
      001689 C5               [11] 4265 	push	bc
      00168A DD 5E FE         [19] 4266 	ld	e, -2 (ix)
      00168D DD 56 FF         [19] 4267 	ld	d, -1 (ix)
      001690 CDr00r00         [17] 4268 	call	_CopyToVRAM
                                   4269 ;src\tarp.c:1877: }
      001693 DD F9            [10] 4270 	ld	sp, ix
      001695 DD E1            [14] 4271 	pop	ix
      001697 E1               [10] 4272 	pop	hl
      001698 33               [ 6] 4273 	inc	sp
      001699 E9               [ 4] 4274 	jp	(hl)
                                   4275 ;src\tarp.c:1882: void num2Dec16(unsigned int value, char *address)	__naked
                                   4276 ;	---------------------------------
                                   4277 ; Function num2Dec16
                                   4278 ; ---------------------------------
      00169A                       4279 _num2Dec16::
                                   4280 ;src\tarp.c:1914: __endasm;
      00169A 01 F0 D8         [10] 4281 	ld	BC,#-10000
      00169D CDrB6r16         [17] 4282 	call	$Num1
      0016A0 01 18 FC         [10] 4283 	ld	BC,#-1000
      0016A3 CDrB6r16         [17] 4284 	call	$Num1
      0016A6 01 9C FF         [10] 4285 	ld	BC,#-100
      0016A9 CDrB6r16         [17] 4286 	call	$Num1
      0016AC 0E F6            [ 7] 4287 	ld	C,#-10
      0016AE CDrB6r16         [17] 4288 	call	$Num1
      0016B1 48               [ 4] 4289 	ld	C,B
      0016B2 CDrB6r16         [17] 4290 	call	$Num1
      0016B5 C9               [10] 4291 	ret
      0016B6                       4292 $Num1:
      0016B6 3E FF            [ 7] 4293 	ld	A,#-1 ;ASCII-1 47
      0016B8                       4294 $Num2:
      0016B8 3C               [ 4] 4295 	inc	A
      0016B9 09               [11] 4296 	add	HL,BC
      0016BA 38 FC            [12] 4297 	jr	C,$Num2
      0016BC ED 42            [15] 4298 	sbc	HL,BC
      0016BE 12               [ 7] 4299 	ld	(DE),A
      0016BF 13               [ 6] 4300 	inc	DE
      0016C0 C9               [10] 4301 	ret
                                   4302 ;src\tarp.c:1915: }
                                   4303 ;src\tarp.c:1920: void GUI_switcher(uint vaddr, boolean value)
                                   4304 ;	---------------------------------
                                   4305 ; Function GUI_switcher
                                   4306 ; ---------------------------------
      0016C1                       4307 _GUI_switcher::
      0016C1 DD E5            [15] 4308 	push	ix
      0016C3 DD 21 00 00      [14] 4309 	ld	ix,#0
      0016C7 DD 39            [15] 4310 	add	ix,sp
                                   4311 ;src\tarp.c:1924: VPOKE(vaddr++,GUI_SWITCHER_ON);
      0016C9 5D               [ 4] 4312 	ld	e, l
      0016CA 54               [ 4] 4313 	ld	d, h
      0016CB 13               [ 6] 4314 	inc	de
                                   4315 ;src\tarp.c:1922: if(value==true)
      0016CC DD CB 04 46      [20] 4316 	bit	0, 4 (ix)
      0016D0 28 13            [12] 4317 	jr	Z, 00102$
                                   4318 ;src\tarp.c:1924: VPOKE(vaddr++,GUI_SWITCHER_ON);
      0016D2 D5               [11] 4319 	push	de
      0016D3 3E DD            [ 7] 4320 	ld	a, #0xdd
      0016D5 F5               [11] 4321 	push	af
      0016D6 33               [ 6] 4322 	inc	sp
      0016D7 CDr00r00         [17] 4323 	call	_VPOKE
      0016DA D1               [10] 4324 	pop	de
                                   4325 ;src\tarp.c:1925: VPOKE(vaddr,GUI_SWITCHER);
      0016DB 3E DF            [ 7] 4326 	ld	a, #0xdf
      0016DD F5               [11] 4327 	push	af
      0016DE 33               [ 6] 4328 	inc	sp
      0016DF EB               [ 4] 4329 	ex	de, hl
      0016E0 CDr00r00         [17] 4330 	call	_VPOKE
      0016E3 18 11            [12] 4331 	jr	00104$
      0016E5                       4332 00102$:
                                   4333 ;src\tarp.c:1927: VPOKE(vaddr++,GUI_SWITCHER);
      0016E5 D5               [11] 4334 	push	de
      0016E6 3E DF            [ 7] 4335 	ld	a, #0xdf
      0016E8 F5               [11] 4336 	push	af
      0016E9 33               [ 6] 4337 	inc	sp
      0016EA CDr00r00         [17] 4338 	call	_VPOKE
      0016ED D1               [10] 4339 	pop	de
                                   4340 ;src\tarp.c:1928: VPOKE(vaddr,GUI_SWITCHER_OFF);
      0016EE 3E DE            [ 7] 4341 	ld	a, #0xde
      0016F0 F5               [11] 4342 	push	af
      0016F1 33               [ 6] 4343 	inc	sp
      0016F2 EB               [ 4] 4344 	ex	de, hl
      0016F3 CDr00r00         [17] 4345 	call	_VPOKE
      0016F6                       4346 00104$:
                                   4347 ;src\tarp.c:1930: }
      0016F6 DD E1            [14] 4348 	pop	ix
      0016F8 E1               [10] 4349 	pop	hl
      0016F9 33               [ 6] 4350 	inc	sp
      0016FA E9               [ 4] 4351 	jp	(hl)
                                   4352 ;src\tarp.c:1935: void showEnv(void)
                                   4353 ;	---------------------------------
                                   4354 ; Function showEnv
                                   4355 ; ---------------------------------
      0016FB                       4356 _showEnv::
                                   4357 ;src\tarp.c:1937: char value = _pattern->Envelope;
      0016FB 2Ar37r00         [16] 4358 	ld	hl, (__pattern)
      0016FE 11 04 00         [10] 4359 	ld	de, #0x0004
      001701 19               [11] 4360 	add	hl, de
      001702 4E               [ 7] 4361 	ld	c, (hl)
                                   4362 ;src\tarp.c:1940: GUI_switcher(GUI_ENVLOOP_VADDR,envelope_list[value].isLoop);
      001703 06 00            [ 7] 4363 	ld	b, #0x00
      001705 69               [ 4] 4364 	ld	l, c
      001706 60               [ 4] 4365 	ld	h, b
      001707 29               [11] 4366 	add	hl, hl
      001708 29               [11] 4367 	add	hl, hl
      001709 29               [11] 4368 	add	hl, hl
      00170A 29               [11] 4369 	add	hl, hl
      00170B 09               [11] 4370 	add	hl, bc
      00170C 11r83r00         [10] 4371 	ld	de, #_envelope_list
      00170F 19               [11] 4372 	add	hl, de
      001710 7E               [ 7] 4373 	ld	a, (hl)
      001711 C5               [11] 4374 	push	bc
      001712 F5               [11] 4375 	push	af
      001713 33               [ 6] 4376 	inc	sp
      001714 21 29 1A         [10] 4377 	ld	hl, #0x1a29
      001717 CDrC1r16         [17] 4378 	call	_GUI_switcher
      00171A C1               [10] 4379 	pop	bc
                                   4380 ;src\tarp.c:1942: VPrintNum(vaddr+2, value, 1);
      00171B 59               [ 4] 4381 	ld	e, c
      00171C 16 00            [ 7] 4382 	ld	d, #0x00
      00171E C5               [11] 4383 	push	bc
      00171F 3E 01            [ 7] 4384 	ld	a, #0x01
      001721 F5               [11] 4385 	push	af
      001722 33               [ 6] 4386 	inc	sp
      001723 21 08 1A         [10] 4387 	ld	hl, #0x1a08
      001726 CDr39r16         [17] 4388 	call	_VPrintNum
      001729 C1               [10] 4389 	pop	bc
                                   4390 ;src\tarp.c:1944: value=value*2+192;
      00172A 79               [ 4] 4391 	ld	a, c
      00172B 87               [ 4] 4392 	add	a, a
      00172C C6 C0            [ 7] 4393 	add	a, #0xc0
                                   4394 ;src\tarp.c:1945: VPOKE(vaddr++,value++);
      00172E 47               [ 4] 4395 	ld	b, a
      00172F 57               [ 4] 4396 	ld	d, a
      001730 14               [ 4] 4397 	inc	d
      001731 D5               [11] 4398 	push	de
      001732 C5               [11] 4399 	push	bc
      001733 33               [ 6] 4400 	inc	sp
      001734 21 06 1A         [10] 4401 	ld	hl, #0x1a06
      001737 CDr00r00         [17] 4402 	call	_VPOKE
      00173A 33               [ 6] 4403 	inc	sp
      00173B 21 07 1A         [10] 4404 	ld	hl, #0x1a07
      00173E CDr00r00         [17] 4405 	call	_VPOKE
                                   4406 ;src\tarp.c:1947: }
      001741 C9               [10] 4407 	ret
                                   4408 ;src\tarp.c:1952: void showSpeaker(uint vaddr, boolean value)
                                   4409 ;	---------------------------------
                                   4410 ; Function showSpeaker
                                   4411 ; ---------------------------------
      001742                       4412 _showSpeaker::
                                   4413 ;src\tarp.c:1954: if(value==true) VPOKE(vaddr,GUI_SPEAKER_ON);
      001742 FD 21 02 00      [14] 4414 	ld	iy, #2
      001746 FD 39            [15] 4415 	add	iy, sp
      001748 FD CB 00 46      [20] 4416 	bit	0, 0 (iy)
      00174C 28 09            [12] 4417 	jr	Z, 00102$
      00174E 3E D9            [ 7] 4418 	ld	a, #0xd9
      001750 F5               [11] 4419 	push	af
      001751 33               [ 6] 4420 	inc	sp
      001752 CDr00r00         [17] 4421 	call	_VPOKE
      001755 18 07            [12] 4422 	jr	00104$
      001757                       4423 00102$:
                                   4424 ;src\tarp.c:1955: else VPOKE(vaddr,GUI_SPEAKER_OFF);
      001757 3E D8            [ 7] 4425 	ld	a, #0xd8
      001759 F5               [11] 4426 	push	af
      00175A 33               [ 6] 4427 	inc	sp
      00175B CDr00r00         [17] 4428 	call	_VPOKE
      00175E                       4429 00104$:
                                   4430 ;src\tarp.c:1956: }
      00175E E1               [10] 4431 	pop	hl
      00175F 33               [ 6] 4432 	inc	sp
      001760 E9               [ 4] 4433 	jp	(hl)
                                   4434 ;src\tarp.c:1961: void initHelpText(void) __naked
                                   4435 ;	---------------------------------
                                   4436 ; Function initHelpText
                                   4437 ; ---------------------------------
      001761                       4438 _initHelpText::
                                   4439 ;src\tarp.c:2028: __endasm;
      001761 21r6Ar17         [10] 4440 	ld	HL,#HELP_TEXT
      001764 11r0Er01         [10] 4441 	ld	DE,#_HELP_TXTADDR
      001767 C3r00r00         [10] 4442 	jp	unRLEWBRAM
                                   4443 ;	map size width:29 height:36
                                   4444 ;	RLE WB compressed - Original size= 1044 - Compress size= 857
      00176A                       4445 HELP_TEXT:
      00176A 4B 65 79 20 4C 69 73  4446 	.db	0x4B,0x65,0x79,0x20,0x4C,0x69,0x73,0x74,0x80,0x14,0x20,0x80,0x1C,0x2D,0x8D,0x81
             74 80 14 20 80 1C 2D
             8D 81
      00177A 89 8E 20 93 83 92 85  4447 	.db	0x89,0x8E,0x20,0x93,0x83,0x92,0x85,0x85,0x8E,0x9B,0x80,0x10,0x20,0x2D,0x5B,0x55
             85 8E 9B 80 10 20 2D
             5B 55
      00178A 70 5D 20 4D 65 6E 75  4448 	.db	0x70,0x5D,0x20,0x4D,0x65,0x6E,0x75,0x20,0x63,0x75,0x72,0x73,0x6F,0x72,0x20,0x75
             20 63 75 72 73 6F 72
             20 75
      00179A 70 80 08 20 2D 5B 44  4449 	.db	0x70,0x80,0x08,0x20,0x2D,0x5B,0x44,0x6F,0x77,0x6E,0x5D,0x20,0x4D,0x65,0x6E,0x75
             6F 77 6E 5D 20 4D 65
             6E 75
      0017AA 20 63 75 72 73 6F 72  4450 	.db	0x20,0x63,0x75,0x72,0x73,0x6F,0x72,0x20,0x64,0x6F,0x77,0x6E,0x80,0x04,0x20,0x2D
             20 64 6F 77 6E 80 04
             20 2D
      0017BA 5B 4C 65 66 74 5D 20  4451 	.db	0x5B,0x4C,0x65,0x66,0x74,0x5D,0x20,0x53,0x77,0x69,0x74,0x63,0x68,0x20,0x6C,0x65
             53 77 69 74 63 68 20
             6C 65
      0017CA 66 74 20 6F 72 80 07  4452 	.db	0x66,0x74,0x20,0x6F,0x72,0x80,0x07,0x20,0x64,0x65,0x63,0x72,0x65,0x61,0x73,0x65
             20 64 65 63 72 65 61
             73 65
      0017DA 20 76 61 6C 75 65 2E  4453 	.db	0x20,0x76,0x61,0x6C,0x75,0x65,0x2E,0x80,0x0C,0x20,0x2D,0x5B,0x52,0x69,0x67,0x68
             80 0C 20 2D 5B 52 69
             67 68
      0017EA 74 5D 20 53 77 69 74  4454 	.db	0x74,0x5D,0x20,0x53,0x77,0x69,0x74,0x63,0x68,0x20,0x72,0x69,0x67,0x68,0x74,0x20
             63 68 20 72 69 67 68
             74 20
      0017FA 6F 72 80 05 20 69 6E  4455 	.db	0x6F,0x72,0x80,0x05,0x20,0x69,0x6E,0x63,0x72,0x65,0x61,0x73,0x65,0x20,0x76,0x61
             63 72 65 61 73 65 20
             76 61
      00180A 6C 75 65 2E 80 0C 20  4456 	.db	0x6C,0x75,0x65,0x2E,0x80,0x0C,0x20,0x2D,0x5B,0x53,0x50,0x41,0x43,0x45,0x5D,0x20
             2D 5B 53 50 41 43 45
             5D 20
      00181A 6F 72 20 4A 6F 79 73  4457 	.db	0x6F,0x72,0x20,0x4A,0x6F,0x79,0x73,0x74,0x69,0x63,0x6B,0x20,0x42,0x75,0x74,0x74
             74 69 63 6B 20 42 75
             74 74
      00182A 6F 6E 80 02 20 41 63  4458 	.db	0x6F,0x6E,0x80,0x02,0x20,0x41,0x63,0x74,0x75,0x61,0x74,0x65,0x20,0x74,0x68,0x65
             74 75 61 74 65 20 74
             68 65
      00183A 20 72 61 6E 64 6F 6D  4459 	.db	0x20,0x72,0x61,0x6E,0x64,0x6F,0x6D,0x20,0x62,0x75,0x74,0x74,0x6F,0x6E,0x73,0x80
             20 62 75 74 74 6F 6E
             73 80
      00184A 02 20 6F 72 20 74 68  4460 	.db	0x02,0x20,0x6F,0x72,0x20,0x74,0x68,0x65,0x20,0x73,0x77,0x69,0x74,0x63,0x68,0x65
             65 20 73 77 69 74 63
             68 65
      00185A 72 73 2E 80 0A 20 2D  4461 	.db	0x72,0x73,0x2E,0x80,0x0A,0x20,0x2D,0x5B,0x52,0x45,0x54,0x55,0x52,0x4E,0x5D,0x20
             5B 52 45 54 55 52 4E
             5D 20
      00186A 50 6C 61 79 62 61 63  4462 	.db	0x50,0x6C,0x61,0x79,0x62,0x61,0x63,0x6B,0x20,0x6D,0x6F,0x64,0x65,0x80,0x05,0x20
             6B 20 6D 6F 64 65 80
             05 20
      00187A 2D 5B 53 54 4F 50 5D  4463 	.db	0x2D,0x5B,0x53,0x54,0x4F,0x50,0x5D,0x20,0x53,0x74,0x6F,0x70,0x20,0x70,0x61,0x74
             20 53 74 6F 70 20 70
             61 74
      00188A 74 65 72 6E 20 70 6C  4464 	.db	0x74,0x65,0x72,0x6E,0x20,0x70,0x6C,0x61,0x79,0x62,0x61,0x63,0x6B,0x2D,0x5B,0x46
             61 79 62 61 63 6B 2D
             5B 46
      00189A 31 5D 9D 52 68 79 74  4465 	.db	0x31,0x5D,0x9D,0x52,0x68,0x79,0x74,0x68,0x6D,0x20,0x63,0x68,0x61,0x6E,0x6E,0x65
             68 6D 20 63 68 61 6E
             6E 65
      0018AA 6C 20 4F 6E 2F 4F 66  4466 	.db	0x6C,0x20,0x4F,0x6E,0x2F,0x4F,0x66,0x66,0x20,0x20,0x2D,0x5B,0x46,0x32,0x5D,0x9C
             66 20 20 2D 5B 46 32
             5D 9C
      0018BA 4D 65 6C 6F 64 79 20  4467 	.db	0x4D,0x65,0x6C,0x6F,0x64,0x79,0x20,0x63,0x68,0x61,0x6E,0x6E,0x65,0x6C,0x20,0x4F
             63 68 61 6E 6E 65 6C
             20 4F
      0018CA 6E 2F 4F 66 66 20 20  4468 	.db	0x6E,0x2F,0x4F,0x66,0x66,0x20,0x20,0x2D,0x5B,0x54,0x41,0x42,0x5D,0x20,0x52,0x61
             2D 5B 54 41 42 5D 20
             52 61
      0018DA 6E 64 6F 6D 20 52 68  4469 	.db	0x6E,0x64,0x6F,0x6D,0x20,0x52,0x68,0x79,0x74,0x68,0x6D,0x20,0x26,0x20,0x4D,0x65
             79 74 68 6D 20 26 20
             4D 65
      0018EA 6C 6F 64 79 2D 5B 43  4470 	.db	0x6C,0x6F,0x64,0x79,0x2D,0x5B,0x43,0x54,0x52,0x4C,0x5D,0x20,0x52,0x61,0x6E,0x64
             54 52 4C 5D 20 52 61
             6E 64
      0018FA 6F 6D 20 52 68 79 74  4471 	.db	0x6F,0x6D,0x20,0x52,0x68,0x79,0x74,0x68,0x6D,0x20,0x70,0x61,0x74,0x74,0x65,0x72
             68 6D 20 70 61 74 74
             65 72
      00190A 6E 2D 5B 53 48 49 46  4472 	.db	0x6E,0x2D,0x5B,0x53,0x48,0x49,0x46,0x54,0x5D,0x52,0x61,0x6E,0x64,0x6F,0x6D,0x20
             54 5D 52 61 6E 64 6F
             6D 20
      00191A 4D 65 6C 6F 64 79 20  4473 	.db	0x4D,0x65,0x6C,0x6F,0x64,0x79,0x20,0x70,0x61,0x74,0x74,0x65,0x72,0x6E,0x2D,0x5B
             70 61 74 74 65 72 6E
             2D 5B
      00192A 31 5D 20 4C 6F 6F 70  4474 	.db	0x31,0x5D,0x20,0x4C,0x6F,0x6F,0x70,0x20,0x66,0x69,0x72,0x73,0x74,0x20,0x32,0x20
             20 66 69 72 73 74 20
             32 20
      00193A 73 74 65 70 73 80 05  4475 	.db	0x73,0x74,0x65,0x70,0x73,0x80,0x05,0x20,0x2D,0x5B,0x32,0x5D,0x20,0x4C,0x6F,0x6F
             20 2D 5B 32 5D 20 4C
             6F 6F
      00194A 70 20 66 69 72 73 74  4476 	.db	0x70,0x20,0x66,0x69,0x72,0x73,0x74,0x20,0x34,0x20,0x73,0x74,0x65,0x70,0x73,0x80
             20 34 20 73 74 65 70
             73 80
      00195A 05 20 2D 5B 33 5D 20  4477 	.db	0x05,0x20,0x2D,0x5B,0x33,0x5D,0x20,0x4C,0x6F,0x6F,0x70,0x20,0x66,0x69,0x72,0x73
             4C 6F 6F 70 20 66 69
             72 73
      00196A 74 20 38 20 73 74 65  4478 	.db	0x74,0x20,0x38,0x20,0x73,0x74,0x65,0x70,0x73,0x80,0x05,0x20,0x2D,0x5B,0x34,0x5D
             70 73 80 05 20 2D 5B
             34 5D
      00197A 20 52 65 73 74 6F 72  4479 	.db	0x20,0x52,0x65,0x73,0x74,0x6F,0x72,0x65,0x20,0x74,0x6F,0x20,0x31,0x36,0x20,0x73
             65 20 74 6F 20 31 36
             20 73
      00198A 74 65 70 73 80 04 20  4480 	.db	0x74,0x65,0x70,0x73,0x80,0x04,0x20,0x2D,0x5B,0x42,0x53,0x5D,0x20,0x53,0x77,0x61
             2D 5B 42 53 5D 20 53
             77 61
      00199A 70 20 70 61 74 74 65  4481 	.db	0x70,0x20,0x70,0x61,0x74,0x74,0x65,0x72,0x6E,0x73,0x20,0x41,0x20,0x61,0x6E,0x64
             72 6E 73 20 41 20 61
             6E 64
      0019AA 20 42 20 20 2D 5B 47  4482 	.db	0x20,0x42,0x20,0x20,0x2D,0x5B,0x47,0x52,0x41,0x50,0x48,0x5D,0x20,0x43,0x6F,0x70
             52 41 50 48 5D 20 43
             6F 70
      0019BA 79 20 63 75 72 72 65  4483 	.db	0x79,0x20,0x63,0x75,0x72,0x72,0x65,0x6E,0x74,0x20,0x70,0x61,0x74,0x74,0x65,0x72
             6E 74 20 70 61 74 74
             65 72
      0019CA 6E 2D 5B 53 45 4C 45  4484 	.db	0x6E,0x2D,0x5B,0x53,0x45,0x4C,0x45,0x43,0x54,0x5D,0x20,0x43,0x68,0x61,0x6E,0x67
             43 54 5D 20 43 68 61
             6E 67
      0019DA 65 20 44 72 75 6D 20  4485 	.db	0x65,0x20,0x44,0x72,0x75,0x6D,0x20,0x4B,0x69,0x74,0x80,0x03,0x20,0x2D,0x5B,0x49
             4B 69 74 80 03 20 2D
             5B 49
      0019EA 6E 73 5D 20 4F 63 74  4486 	.db	0x6E,0x73,0x5D,0x20,0x4F,0x63,0x74,0x61,0x76,0x65,0x20,0x55,0x70,0x80,0x0C,0x20
             61 76 65 20 55 70 80
             0C 20
      0019FA 2D 5B 44 65 6C 5D 20  4487 	.db	0x2D,0x5B,0x44,0x65,0x6C,0x5D,0x20,0x4F,0x63,0x74,0x61,0x76,0x65,0x20,0x44,0x6F
             4F 63 74 61 76 65 20
             44 6F
      001A0A 77 6E 80 0A 20 2D 5B  4488 	.db	0x77,0x6E,0x80,0x0A,0x20,0x2D,0x5B,0x2C,0x5D,0x20,0x54,0x72,0x61,0x6E,0x73,0x70
             2C 5D 20 54 72 61 6E
             73 70
      001A1A 6F 73 65 20 70 61 74  4489 	.db	0x6F,0x73,0x65,0x20,0x70,0x61,0x74,0x74,0x65,0x72,0x6E,0x20,0x44,0x6F,0x77,0x6E
             74 65 72 6E 20 44 6F
             77 6E
      001A2A 20 20 2D 5B 2E 5D 20  4490 	.db	0x20,0x20,0x2D,0x5B,0x2E,0x5D,0x20,0x54,0x72,0x61,0x6E,0x73,0x70,0x6F,0x73,0x65
             54 72 61 6E 73 70 6F
             73 65
      001A3A 20 70 61 74 74 65 72  4491 	.db	0x20,0x70,0x61,0x74,0x74,0x65,0x72,0x6E,0x20,0x55,0x70,0x80,0x03,0x20,0x2D,0x5B
             6E 20 55 70 80 03 20
             2D 5B
      001A4A 48 4F 4D 45 5D 20 53  4492 	.db	0x48,0x4F,0x4D,0x45,0x5D,0x20,0x53,0x68,0x6F,0x77,0x20,0x48,0x65,0x6C,0x70,0x20
             68 6F 77 20 48 65 6C
             70 20
      001A5A 73 63 72 65 65 6E 80  4493 	.db	0x73,0x63,0x72,0x65,0x65,0x6E,0x80,0x21,0x20,0x88,0x85,0x8C,0x90,0x20,0x93,0x83
             21 20 88 85 8C 90 20
             93 83
      001A6A 92 85 85 8E 9B 80 10  4494 	.db	0x92,0x85,0x85,0x8E,0x9B,0x80,0x10,0x20,0x2D,0x5B,0x55,0x70,0x5D,0x20,0x55,0x70
             20 2D 5B 55 70 5D 20
             55 70
      001A7A 20 73 63 72 6F 6C 6C  4495 	.db	0x20,0x73,0x63,0x72,0x6F,0x6C,0x6C,0x20,0x74,0x65,0x78,0x74,0x80,0x08,0x20,0x2D
             20 74 65 78 74 80 08
             20 2D
      001A8A 5B 44 6F 77 6E 5D 20  4496 	.db	0x5B,0x44,0x6F,0x77,0x6E,0x5D,0x20,0x44,0x6F,0x77,0x6E,0x20,0x73,0x63,0x72,0x6F
             44 6F 77 6E 20 73 63
             72 6F
      001A9A 6C 6C 20 74 65 78 74  4497 	.db	0x6C,0x6C,0x20,0x74,0x65,0x78,0x74,0x80,0x04,0x20,0x2D,0x5B,0x45,0x53,0x43,0x5D
             80 04 20 2D 5B 45 53
             43 5D
      001AAA 20 52 65 74 75 72 6E  4498 	.db	0x20,0x52,0x65,0x74,0x75,0x72,0x6E,0x20,0x74,0x6F,0x20,0x6D,0x61,0x69,0x6E,0x20
             20 74 6F 20 6D 61 69
             6E 20
      001ABA 73 63 72 65 65 6E 20  4499 	.db	0x73,0x63,0x72,0x65,0x65,0x6E,0x20,0x80,0xFF
             80 FF
                                   4500 ;src\tarp.c:2029: }
                                   4501 ;src\tarp.c:2033: void showHelpText(char line) __naked
                                   4502 ;	---------------------------------
                                   4503 ; Function showHelpText
                                   4504 ; ---------------------------------
      001AC3                       4505 _showHelpText::
                                   4506 ;src\tarp.c:2091: __endasm;
      001AC3 5F               [ 4] 4507 	ld	E,A
      001AC4 16 00            [ 7] 4508 	ld	D,#0
      001AC6 01 1D 00         [10] 4509 	ld	BC,#29
      001AC9 CDrEEr1A         [17] 4510 	call	Mult16 ; HL = BC*DE
      001ACC 11r0Er01         [10] 4511 	ld	DE,#_HELP_TXTADDR
      001ACF 19               [11] 4512 	add	HL,DE
      001AD0 11 61 18         [10] 4513 	ld	DE,#0x1800 + (3*32)+1 ;VRAM address
      001AD3 06 14            [ 7] 4514 	ld	B,#20
      001AD5                       4515 printAline:
      001AD5 C5               [11] 4516 	push	BC
      001AD6 E5               [11] 4517 	push	HL
      001AD7 D5               [11] 4518 	push	DE
      001AD8 01 1D 00         [10] 4519 	ld	BC,#29 ; line size
      001ADB CD 5C 00         [17] 4520 	call	0x005C
      001ADE D1               [10] 4521 	pop	DE
      001ADF EB               [ 4] 4522 	ex	DE,HL
      001AE0 11 20 00         [10] 4523 	ld	DE,#32
      001AE3 19               [11] 4524 	add	HL,DE
      001AE4 EB               [ 4] 4525 	ex	DE,HL
      001AE5 E1               [10] 4526 	pop	HL
      001AE6 01 1D 00         [10] 4527 	ld	BC,#29
      001AE9 09               [11] 4528 	add	HL,BC
      001AEA C1               [10] 4529 	pop	BC
      001AEB 10 E8            [13] 4530 	djnz	printAline
      001AED C9               [10] 4531 	ret
      001AEE                       4532 Mult16:
      001AEE 78               [ 4] 4533 	ld	A,B
      001AEF 06 10            [ 7] 4534 	ld	B,#16
      001AF1                       4535 Mult16_Loop:
      001AF1 29               [11] 4536 	add	HL,HL
      001AF2 CB 21            [ 8] 4537 	sla	C
      001AF4 17               [ 4] 4538 	rla
      001AF5 30 01            [12] 4539 	jr	NC,Mult16_NoAdd
      001AF7 19               [11] 4540 	add	HL,DE
      001AF8                       4541 Mult16_NoAdd:
      001AF8 10 F7            [13] 4542 	djnz	Mult16_Loop
      001AFA C9               [10] 4543 	ret
                                   4544 ;src\tarp.c:2092: }
                                   4545 ;src\tarp.c:2096: void showScrollbar(char line)
                                   4546 ;	---------------------------------
                                   4547 ; Function showScrollbar
                                   4548 ; ---------------------------------
      001AFB                       4549 _showScrollbar::
      001AFB DD E5            [15] 4550 	push	ix
      001AFD DD 21 00 00      [14] 4551 	ld	ix,#0
      001B01 DD 39            [15] 4552 	add	ix,sp
      001B03 F5               [11] 4553 	push	af
      001B04 3B               [ 6] 4554 	dec	sp
                                   4555 ;src\tarp.c:2105: barrPos =(line<<4)>>1;
      001B05 26 00            [ 7] 4556 	ld	h, #0x00
                                   4557 ;	spillPairReg hl
                                   4558 ;	spillPairReg hl
      001B07 6F               [ 4] 4559 	ld	l, a
      001B08 29               [11] 4560 	add	hl, hl
      001B09 29               [11] 4561 	add	hl, hl
      001B0A 29               [11] 4562 	add	hl, hl
      001B0B 29               [11] 4563 	add	hl, hl
      001B0C CB 2C            [ 8] 4564 	sra	h
      001B0E CB 1D            [ 8] 4565 	rr	l
      001B10 7D               [ 4] 4566 	ld	a, l
                                   4567 ;src\tarp.c:2106: barrPos = barrPos>>4;
      001B11 07               [ 4] 4568 	rlca
      001B12 07               [ 4] 4569 	rlca
      001B13 07               [ 4] 4570 	rlca
      001B14 07               [ 4] 4571 	rlca
      001B15 E6 0F            [ 7] 4572 	and	a, #0x0f
      001B17 DD 77 FD         [19] 4573 	ld	-3 (ix), a
                                   4574 ;src\tarp.c:2112: for (i=0;i<20;i++)
      001B1A DD 36 FE 00      [19] 4575 	ld	-2 (ix), #0x00
      001B1E 21 7F 18         [10] 4576 	ld	hl, #0x187f
      001B21 DD 36 FF 00      [19] 4577 	ld	-1 (ix), #0x00
      001B25                       4578 00111$:
                                   4579 ;src\tarp.c:2114: if(i>=barrPos)
      001B25 DD 7E FF         [19] 4580 	ld	a, -1 (ix)
      001B28 DD 96 FD         [19] 4581 	sub	a, -3 (ix)
      001B2B 38 12            [12] 4582 	jr	C, 00105$
                                   4583 ;src\tarp.c:2116: if(size<HELP_sizeBar)
      001B2D DD 7E FE         [19] 4584 	ld	a, -2 (ix)
      001B30 D6 0C            [ 7] 4585 	sub	a, #0x0c
      001B32 30 07            [12] 4586 	jr	NC, 00102$
                                   4587 ;src\tarp.c:2118: writeBar=true;
      001B34 0E 01            [ 7] 4588 	ld	c, #0x01
                                   4589 ;src\tarp.c:2119: size++;
      001B36 DD 34 FE         [23] 4590 	inc	-2 (ix)
      001B39 18 06            [12] 4591 	jr	00106$
      001B3B                       4592 00102$:
                                   4593 ;src\tarp.c:2121: else writeBar=false;
      001B3B 0E 00            [ 7] 4594 	ld	c, #0x00
      001B3D 18 02            [12] 4595 	jr	00106$
      001B3F                       4596 00105$:
                                   4597 ;src\tarp.c:2123: else writeBar=false;
      001B3F 0E 00            [ 7] 4598 	ld	c, #0x00
      001B41                       4599 00106$:
                                   4600 ;src\tarp.c:2125: if(writeBar) VPOKE(vaddr,GUI_SCROLLBAR); 
      001B41 CB 41            [ 8] 4601 	bit	0, c
      001B43 28 0B            [12] 4602 	jr	Z, 00108$
      001B45 E5               [11] 4603 	push	hl
      001B46 3E 7F            [ 7] 4604 	ld	a, #0x7f
      001B48 F5               [11] 4605 	push	af
      001B49 33               [ 6] 4606 	inc	sp
      001B4A CDr00r00         [17] 4607 	call	_VPOKE
      001B4D E1               [10] 4608 	pop	hl
      001B4E 18 09            [12] 4609 	jr	00109$
      001B50                       4610 00108$:
                                   4611 ;src\tarp.c:2126: else VPOKE(vaddr,GUI_SCROLLBAR_EMPTY);
      001B50 E5               [11] 4612 	push	hl
      001B51 3E 7E            [ 7] 4613 	ld	a, #0x7e
      001B53 F5               [11] 4614 	push	af
      001B54 33               [ 6] 4615 	inc	sp
      001B55 CDr00r00         [17] 4616 	call	_VPOKE
      001B58 E1               [10] 4617 	pop	hl
      001B59                       4618 00109$:
                                   4619 ;src\tarp.c:2127: vaddr+=32;
      001B59 01 20 00         [10] 4620 	ld	bc, #0x0020
      001B5C 09               [11] 4621 	add	hl, bc
                                   4622 ;src\tarp.c:2112: for (i=0;i<20;i++)
      001B5D DD 34 FF         [23] 4623 	inc	-1 (ix)
      001B60 DD 7E FF         [19] 4624 	ld	a, -1 (ix)
      001B63 D6 14            [ 7] 4625 	sub	a, #0x14
      001B65 38 BE            [12] 4626 	jr	C, 00111$
                                   4627 ;src\tarp.c:2132: }
      001B67 DD F9            [10] 4628 	ld	sp, ix
      001B69 DD E1            [14] 4629 	pop	ix
      001B6B C9               [10] 4630 	ret
                                   4631 ;src\tarp.c:2136: void showLogoScreen(void) __naked
                                   4632 ;	---------------------------------
                                   4633 ; Function showLogoScreen
                                   4634 ; ---------------------------------
      001B6C                       4635 _showLogoScreen::
                                   4636 ;src\tarp.c:2293: __endasm;
      001B6C 21r87r1B         [10] 4637 	ld	HL,#titlescreen_PAT
      001B6F 11 00 00         [10] 4638 	ld	DE,#0x0000
      001B72 CDr00r00         [17] 4639 	call	unRLEWBVRAM
      001B75 21r7Dr20         [10] 4640 	ld	HL,#titlescreen_COL
      001B78 11 00 20         [10] 4641 	ld	DE,#0x2000
      001B7B CDr00r00         [17] 4642 	call	unRLEWBVRAM
      001B7E 21r6Er22         [10] 4643 	ld	HL,#titlescreen_SPRPATTERNS
      001B81 11 00 38         [10] 4644 	ld	DE,#0x3800
      001B84 C3r00r00         [10] 4645 	jp	unRLEWBVRAM
                                   4646 ;	Project: The Alan Random Project (TARP)
                                   4647 ;	Picture: TARP_titlescreen_BG
                                   4648 ;	RLE WB compressed - Original size= 6144 - Final size= 1270
      001B87                       4649 titlescreen_PAT:
      001B87 80 03 FF 03 03 80 05  4650 	.db	0x80,0x03,0xFF,0x03,0x03,0x80,0x05,0x00,0xF6,0xF6,0xC7,0xC7,0x80,0x05,0x00,0x87
             00 F6 F6 C7 C7 80 05
             00 87
      001B97 CF 80 06 00 80 00 80  4651 	.db	0xCF,0x80,0x06,0x00,0x80,0x00,0x80,0x03,0x00,0x1C,0x1C,0x36,0x37,0x80,0x03,0x00
             03 00 1C 1C 36 37 80
             03 00
      001BA7 38 38 18 18 80 05 00  4652 	.db	0x38,0x38,0x18,0x18,0x80,0x05,0x00,0x39,0x3D,0x80,0x05,0x00,0xE0,0xF0,0x80,0x03
             39 3D 80 05 00 E0 F0
             80 03
      001BB7 00 07 07 06 06 80 03  4653 	.db	0x00,0x07,0x07,0x06,0x06,0x80,0x03,0x00,0x80,0x00,0x80,0x00,0xC3,0xE3,0x80,0x05
             00 80 00 80 00 C3 E3
             80 05
      001BC7 00 9E DF 80 03 00 03  4654 	.db	0x00,0x9E,0xDF,0x80,0x03,0x00,0x03,0x03,0x0F,0x1F,0x80,0x05,0x00,0x38,0x7C,0x80
             03 0F 1F 80 05 00 38
             7C 80
      001BD7 05 00 C4 EE 80 05 00  4655 	.db	0x05,0x00,0xC4,0xEE,0x80,0x05,0x00,0x70,0xF0,0x80,0x03,0x00,0x80,0x03,0x03,0x80
             70 F0 80 03 00 80 03
             03 80
      001BE7 03 00 C0 C0 67 77 80  4656 	.db	0x03,0x00,0xC0,0xC0,0x67,0x77,0x80,0x05,0x00,0xC7,0xEF,0x80,0x03,0x00,0x03,0x03
             05 00 C7 EF 80 03 00
             03 03
      001BF7 00 83 80 05 00 1C 3E  4657 	.db	0x00,0x83,0x80,0x05,0x00,0x1C,0x3E,0x80,0x05,0x00,0x38,0x7C,0x80,0x03,0x00,0x30
             80 05 00 38 7C 80 03
             00 30
      001C07 30 78 78 80 57 00 80  4658 	.db	0x30,0x78,0x78,0x80,0x57,0x00,0x80,0x07,0xC6,0xCD,0x6F,0x6F,0x80,0x02,0x6C,0x6F
             07 C6 CD 6F 6F 80 02
             6C 6F
      001C17 67 80 02 80 00 00 C0  4659 	.db	0x67,0x80,0x02,0x80,0x00,0x00,0xC0,0xC0,0x80,0x00,0x33,0x3F,0x3F,0x80,0x04,0x33
             C0 80 00 33 3F 3F 80
             04 33
      001C27 80 05 18 7E 7E 0D 7D  4660 	.db	0x80,0x05,0x18,0x7E,0x7E,0x0D,0x7D,0x7D,0x80,0x02,0xCD,0xFD,0x7D,0xB0,0x80,0x06
             7D 80 02 CD FD 7D B0
             80 06
      001C37 98 80 02 06 07 07 80  4661 	.db	0x98,0x80,0x02,0x06,0x07,0x07,0x80,0x02,0x06,0x60,0x67,0x67,0xCC,0xCC,0x8C,0xCF
             02 06 60 67 67 CC CC
             8C CF
      001C47 C7 DB 80 06 D9 1B 80  4662 	.db	0xC7,0xDB,0x80,0x06,0xD9,0x1B,0x80,0x04,0xB3,0xBF,0x9F,0x6C,0x80,0x04,0x66,0x7E
             04 B3 BF 9F 6C 80 04
             66 7E
      001C57 3C 80 02 FE D6 D6 80  4663 	.db	0x3C,0x80,0x02,0xFE,0xD6,0xD6,0x80,0x02,0xC6,0xC0,0x78,0x78,0x0C,0x0C,0xCC,0xFC
             02 C6 C0 78 78 0C 0C
             CC FC
      001C67 78 80 07 03 80 02 36  4664 	.db	0x78,0x80,0x07,0x03,0x80,0x02,0x36,0xE6,0xE6,0x80,0x02,0x06,0x6D,0x80,0x04,0x0C
             E6 E6 80 02 06 6D 80
             04 0C
      001C77 0F 07 83 80 04 C3 CB  4665 	.db	0x0F,0x07,0x83,0x80,0x04,0xC3,0xCB,0x8B,0x36,0x3E,0x3E,0x30,0x30,0x33,0x3F,0x1E
             8B 36 3E 3E 30 30 33
             3F 1E
      001C87 64 80 03 60 66 7E 3C  4666 	.db	0x64,0x80,0x03,0x60,0x66,0x7E,0x3C,0x80,0x04,0x30,0x34,0x3C,0x18,0x80,0x97,0x00
             80 04 30 34 3C 18 80
             97 00
      001C97 60 60 80 45 00 06 06  4667 	.db	0x60,0x60,0x80,0x45,0x00,0x06,0x06,0x80,0xFE,0x00,0x80,0xFE,0x00,0x80,0x2D,0x00
             80 FE 00 80 FE 00 80
             2D 00
      001CA7 01 03 80 04 00 07 FF  4668 	.db	0x01,0x03,0x80,0x04,0x00,0x07,0xFF,0xFF,0x80,0x03,0x00,0x80,0x03,0xFF,0x80,0x03
             FF 80 03 00 80 03 FF
             80 03
      001CB7 00 80 03 FF 80 04 00  4669 	.db	0x00,0x80,0x03,0xFF,0x80,0x04,0x00,0xF0,0xFF,0xFF,0x80,0x06,0x00,0xC0,0x80,0xCA
             F0 FF FF 80 06 00 C0
             80 CA
      001CC7 00 03 07 0F 1F 3F 1F  4670 	.db	0x00,0x03,0x07,0x0F,0x1F,0x3F,0x1F,0x3F,0x80,0x25,0xFF,0xF0,0xF8,0xFC,0xFE,0x80
             3F 80 25 FF F0 F8 FC
             FE 80
      001CD7 03 FF 80 04 00 80 00  4671 	.db	0x03,0xFF,0x80,0x04,0x00,0x80,0x00,0x80,0x00,0xC0,0x80,0xBA,0x00,0x01,0x01,0x03
             80 00 C0 80 BA 00 01
             01 03
      001CE7 07 06 7F 7F 80 03 FF  4672 	.db	0x07,0x06,0x7F,0x7F,0x80,0x03,0xFF,0xBF,0x3F,0x80,0x2F,0xFF,0xE0,0xE0,0x80,0x02
             BF 3F 80 2F FF E0 E0
             80 02
      001CF7 F0 F8 F8 FC 80 5B 00  4673 	.db	0xF0,0xF8,0xF8,0xFC,0x80,0x5B,0x00,0x03,0x0F,0x1F,0x1F,0x80,0x02,0x00,0x70,0xFC
             03 0F 1F 1F 80 02 00
             70 FC
      001D07 80 02 FF 80 05 00 80  4674 	.db	0x80,0x02,0xFF,0x80,0x05,0x00,0x80,0x00,0x80,0x00,0x00,0x00,0x07,0x1F,0x3F,0x7F
             00 80 00 00 00 07 1F
             3F 7F
      001D17 7F FE FF FF E0 F8 FC  4675 	.db	0x7F,0xFE,0xFF,0xFF,0xE0,0xF8,0xFC,0xFC,0xFE,0x3F,0x80,0x37,0xFF,0x06,0x04,0x04
             FC FE 3F 80 37 FF 06
             04 04
      001D27 80 04 08 C0 80 06 80  4676 	.db	0x80,0x04,0x08,0xC0,0x80,0x06,0x80,0x80,0x2F,0x00,0x80,0x03,0x03,0x80,0x03,0x01
             80 2F 00 80 03 03 80
             03 01
      001D37 80 57 FF 80 04 C0 E0  4677 	.db	0x80,0x57,0xFF,0x80,0x04,0xC0,0xE0,0xE0,0xF0,0x00,0x8F,0x80,0x02,0x07,0x8F,0xFF
             E0 F0 00 8F 80 02 07
             8F FF
      001D47 01 80 03 3F 7F 7F FF  4678 	.db	0x01,0x80,0x03,0x3F,0x7F,0x7F,0xFF,0xFF,0x80,0x02,0xFC,0xFE,0x80,0x00,0xC0,0xE0
             FF 80 02 FC FE 80 00
             C0 E0
      001D57 F0 80 02 1F 3F 01 01  4679 	.db	0xF0,0x80,0x02,0x1F,0x3F,0x01,0x01,0x03,0x07,0x80,0x37,0xFF,0x08,0x00,0x80,0x03
             03 07 80 37 FF 08 00
             80 03
      001D67 08 00 08 80 07 80 80  4680 	.db	0x08,0x00,0x08,0x80,0x07,0x80,0x80,0x2F,0x00,0x01,0x80,0x06,0x00,0x80,0x57,0xFF
             2F 00 01 80 06 00 80
             57 FF
      001D77 80 07 01 80 06 FC 01  4681 	.db	0x80,0x07,0x01,0x80,0x06,0xFC,0x01,0x80,0x03,0xFF,0x00,0x00,0x7F,0xC1,0x80,0x03
             80 03 FF 00 00 7F C1
             80 03
      001D87 07 80 02 0F 03 0F 80  4682 	.db	0x07,0x80,0x02,0x0F,0x03,0x0F,0x80,0x02,0x1F,0x3F,0x3F,0xC0,0xC0,0x80,0x37,0x00
             02 1F 3F 3F C0 C0 80
             37 00
      001D97 08 00 00 04 04 80 02  4683 	.db	0x08,0x00,0x00,0x04,0x04,0x80,0x02,0x00,0x80,0x02,0x80,0x80,0x02,0xC0,0xE0,0xE0
             00 80 02 80 80 02 C0
             E0 E0
      001DA7 80 31 00 80 04 01 03  4684 	.db	0x80,0x31,0x00,0x80,0x04,0x01,0x03,0x80,0x51,0xFF,0xFC,0xF0,0xE0,0xE0,0xC0,0xC0
             80 51 FF FC F0 E0 E0
             C0 C0
      001DB7 FC F8 70 03 07 0F 1F  4685 	.db	0xFC,0xF8,0x70,0x03,0x07,0x0F,0x1F,0x3F,0x02,0x80,0x0E,0x00,0x20,0x80,0x06,0x00
             3F 02 80 0E 00 20 80
             06 00
      001DC7 3F 1C C0 E0 F0 F8 F8  4686 	.db	0x3F,0x1C,0xC0,0xE0,0xF0,0xF8,0xF8,0xFC,0xFF,0x1F,0x0F,0x07,0x03,0x03,0x01,0x01
             FC FF 1F 0F 07 03 03
             01 01
      001DD7 80 37 FF 80 02 0F 07  4687 	.db	0x80,0x37,0xFF,0x80,0x02,0x0F,0x07,0x07,0x03,0x03,0x01,0x80,0x2F,0xFF,0xFC,0xFC
             07 03 03 01 80 2F FF
             FC FC
      001DE7 F8 F8 F0 E0 C0 80 00  4688 	.db	0xF8,0xF8,0xF0,0xE0,0xC0,0x80,0x00,0x80,0x4F,0x00,0x80,0x03,0xC0,0xE0,0xF8,0xFE
             80 4F 00 80 03 C0 E0
             F8 FE
      001DF7 01 3F 7F 7F 80 03 80  4689 	.db	0x01,0x3F,0x7F,0x7F,0x80,0x03,0x80,0x80,0x05,0x00,0xFE,0xFE,0x80,0x06,0xFF,0x7F
             80 05 00 FE FE 80 06
             FF 7F
      001E07 3F 80 03 FF EF EF CF  4690 	.db	0x3F,0x80,0x03,0xFF,0xEF,0xEF,0xCF,0x9F,0xFE,0xFE,0x80,0x02,0x01,0x80,0x02,0x00
             9F FE FE 80 02 01 80
             02 00
      001E17 80 02 01 03 07 1F C0  4691 	.db	0x80,0x02,0x01,0x03,0x07,0x1F,0xC0,0xC0,0x80,0x3F,0x00,0xFF,0x80,0x00,0xE0,0xF0
             C0 80 3F 00 FF 80 00
             E0 F0
      001E27 F8 FC FF FF 80 06 00  4692 	.db	0xF8,0xFC,0xFF,0xFF,0x80,0x06,0x00,0xF0,0x80,0x0E,0x00,0x01,0x80,0x04,0x00,0x01
             F0 80 0E 00 01 80 04
             00 01
      001E37 0F FF 00 01 03 0F 7F  4693 	.db	0x0F,0xFF,0x00,0x01,0x03,0x0F,0x7F,0x80,0x58,0xFF,0x01,0x1F,0x80,0x03,0x01,0x03
             80 58 FF 01 1F 80 03
             01 03
      001E47 1F 07 3F 80 0F FF 8E  4694 	.db	0x1F,0x07,0x3F,0x80,0x0F,0xFF,0x8E,0xE0,0x80,0x05,0xFF,0x3F,0x80,0x0E,0xFF,0xC0
             E0 80 05 FF 3F 80 0E
             FF C0
      001E57 C0 E0 E0 FF 80 00 80  4695 	.db	0xC0,0xE0,0xE0,0xFF,0x80,0x00,0x80,0x05,0xFF,0x07,0x00,0xE0,0x01,0x80,0x04,0xFF
             05 FF 07 00 E0 01 80
             04 FF
      001E67 80 00 F0 FC 80 A8 00  4696 	.db	0x80,0x00,0xF0,0xFC,0x80,0xA8,0x00,0x01,0x80,0x02,0x03,0x80,0x02,0x07,0x03,0x1F
             01 80 02 03 80 02 07
             03 1F
      001E77 3F 7F 80 00 80 09 00  4697 	.db	0x3F,0x7F,0x80,0x00,0x80,0x09,0x00,0xC0,0x80,0x06,0xFF,0x80,0x00,0x80,0x14,0x00
             C0 80 06 FF 80 00 80
             14 00
      001E87 09 1D 14 80 04 00 10  4698 	.db	0x09,0x1D,0x14,0x80,0x04,0x00,0x10,0xB0,0xE0,0x80,0x05,0x00,0x3F,0x7F,0x80,0x05
             B0 E0 80 05 00 3F 7F
             80 05
      001E97 00 F8 FE 0F 03 01 01  4699 	.db	0x00,0xF8,0xFE,0x0F,0x03,0x01,0x01,0x80,0x03,0x00,0xFF,0x80,0x00,0x80,0x00,0x80
             80 03 00 FF 80 00 80
             00 80
      001EA7 04 C0 80 9F 00 80 07  4700 	.db	0x04,0xC0,0x80,0x9F,0x00,0x80,0x07,0x07,0x80,0x07,0xFF,0x80,0x00,0xF0,0xE0,0x80
             07 80 07 FF 80 00 F0
             E0 80
      001EB7 02 C0 E0 E0 80 07 80  4701 	.db	0x02,0xC0,0xE0,0xE0,0x80,0x07,0x80,0x80,0x0F,0x00,0x3E,0x22,0x22,0x80,0x04,0x00
             80 0F 00 3E 22 22 80
             04 00
      001EC7 80 02 40 80 04 00 80  4702 	.db	0x80,0x02,0x40,0x80,0x04,0x00,0x80,0x07,0xE0,0x0F,0x07,0x80,0x05,0x03,0x80,0x07
             07 E0 0F 07 80 05 03
             80 07
      001ED7 FF 80 06 C0 80 00 80  4703 	.db	0xFF,0x80,0x06,0xC0,0x80,0x00,0x80,0x9F,0x00,0x03,0x03,0x01,0x01,0x80,0x03,0x00
             9F 00 03 03 01 01 80
             03 00
      001EE7 80 00 80 00 C0 E1 FF  4704 	.db	0x80,0x00,0x80,0x00,0xC0,0xE1,0xFF,0xC0,0xFF,0xFF,0x80,0x02,0x0E,0x1E,0x3E,0x7E
             C0 FF FF 80 02 0E 1E
             3E 7E
      001EF7 FE FE 80 07 80 80 1F  4705 	.db	0xFE,0xFE,0x80,0x07,0x80,0x80,0x1F,0x00,0x80,0x06,0xE0,0xFC,0x03,0x01,0x01,0x80
             00 80 06 E0 FC 03 01
             01 80
      001F07 04 00 81 83 01 87 80  4706 	.db	0x04,0x00,0x81,0x83,0x01,0x87,0x80,0x03,0xFF,0x7F,0x80,0xB6,0xFF,0x80,0x07,0xFC
             03 FF 7F 80 B6 FF 80
             07 FC
      001F17 80 00 80 14 00 C0 80  4707 	.db	0x80,0x00,0x80,0x14,0x00,0xC0,0x80,0x00,0x80,0x05,0xFF,0x07,0x01,0x80,0x07,0xFF
             00 80 05 FF 07 01 80
             07 FF
      001F27 01 0F 07 80 02 03 01  4708 	.db	0x01,0x0F,0x07,0x80,0x02,0x03,0x01,0x01,0x80,0x03,0xFF,0x80,0x03,0x80,0x80,0xBF
             01 80 03 FF 80 03 80
             80 BF
      001F37 00 80 07 03 80 04 FF  4709 	.db	0x00,0x80,0x07,0x03,0x80,0x04,0xFF,0x80,0x02,0x80,0x00,0x80,0x06,0x01,0xE0,0xC0
             80 02 80 00 80 06 01
             E0 C0
      001F47 80 05 80 0F 07 03 03  4710 	.db	0x80,0x05,0x80,0x0F,0x07,0x03,0x03,0x80,0x03,0x01,0xFF,0xFF,0x80,0x05,0x80,0x80
             80 03 01 FF FF 80 05
             80 80
      001F57 07 01 80 07 80 80 A5  4711 	.db	0x07,0x01,0x80,0x07,0x80,0x80,0xA5,0x00,0x01,0x7F,0x80,0x04,0x00,0x1F,0x03,0x80
             00 01 7F 80 04 00 1F
             03 80
      001F67 04 FF 0F 01 80 04 FF  4712 	.db	0x04,0xFF,0x0F,0x01,0x80,0x04,0xFF,0x0F,0x80,0x03,0xFF,0x01,0x00,0x00,0xFF,0x80
             0F 80 03 FF 01 00 00
             FF 80
      001F77 00 80 02 00 C0 F0 80  4713 	.db	0x00,0x80,0x02,0x00,0xC0,0xF0,0x80,0x00,0x00,0x80,0x03,0xFF,0x03,0xC0,0x80,0x0D
             00 00 80 03 FF 03 C0
             80 0D
      001F87 FF 80 02 01 FF FF E0  4714 	.db	0xFF,0x80,0x02,0x01,0xFF,0xFF,0xE0,0xF8,0xFE,0x80,0x05,0x80,0xC0,0xE0,0x80,0x05
             F8 FE 80 05 80 C0 E0
             80 05
      001F97 01 03 07 80 04 80 03  4715 	.db	0x01,0x03,0x07,0x80,0x04,0x80,0x03,0x07,0x00,0x80,0x05,0xFF,0x01,0x01,0x80,0x06
             07 00 80 05 FF 01 01
             80 06
      001FA7 FF 01 80 75 FF F8 C0  4716 	.db	0xFF,0x01,0x80,0x75,0xFF,0xF8,0xC0,0x80,0x03,0xFF,0xF0,0x07,0x3F,0x80,0x02,0xFF
             80 03 FF F0 07 3F 80
             02 FF
      001FB7 0F 0F 80 03 FF 0F FF  4717 	.db	0x0F,0x0F,0x80,0x03,0xFF,0x0F,0xFF,0x80,0x00,0x80,0x04,0x00,0xE0,0x80,0x3E,0x00
             80 00 80 04 00 E0 80
             3E 00
      001FC7 01 80 06 00 80 00 C0  4718 	.db	0x01,0x80,0x06,0x00,0x80,0x00,0xC0,0x80,0x00,0x80,0x04,0xFF,0x01,0x07,0x0F,0x80
             80 00 80 04 FF 01 07
             0F 80
      001FD7 14 FF FE 80 06 FF 07  4719 	.db	0x14,0xFF,0xFE,0x80,0x06,0xFF,0x07,0x07,0x80,0x05,0x00,0xFF,0xF0,0xC0,0xFE,0x80
             07 80 05 00 FF F0 C0
             FE 80
      001FE7 05 FF C0 FE 07 80 02  4720 	.db	0x05,0xFF,0xC0,0xFE,0x07,0x80,0x02,0x00,0x80,0x03,0xFF,0xF0,0x80,0x00,0xF8,0x80
             00 80 03 FF F0 80 00
             F8 80
      001FF7 06 FF 03 E0 80 06 FF  4721 	.db	0x06,0xFF,0x03,0xE0,0x80,0x06,0xFF,0xE0,0x80,0x3F,0x00,0x07,0x3F,0x80,0xB5,0xFF
             E0 80 3F 00 07 3F 80
             B5 FF
      002007 80 00 F0 80 06 FF F0  4722 	.db	0x80,0x00,0xF0,0x80,0x06,0xFF,0xF0,0x80,0x00,0xF0,0x80,0x06,0xFF,0xF0,0xFE,0xF0
             80 00 F0 80 06 FF F0
             FE F0
      002017 80 06 FF 07 01 E0 80  4723 	.db	0x80,0x06,0xFF,0x07,0x01,0xE0,0x80,0x06,0xFF,0x80,0x00,0x80,0x1F,0x00,0x80,0xCF
             06 FF 80 00 80 1F 00
             80 CF
      002027 FF 01 80 06 00 03 E0  4724 	.db	0xFF,0x01,0x80,0x06,0x00,0x03,0xE0,0xFC,0x80,0x05,0xFF,0x80,0x00,0xFC,0x80,0x00
             FC 80 05 FF 80 00 FC
             80 00
      002037 F0 FE 80 04 FF 80 00  4725 	.db	0xF0,0xFE,0x80,0x04,0xFF,0x80,0x00,0xF0,0xFF,0xC0,0xF0,0x80,0x05,0xFF,0xE0,0xF8
             F0 FF C0 F0 80 05 FF
             E0 F8
      002047 80 07 00 80 F0 FF C0  4726 	.db	0x80,0x07,0x00,0x80,0xF0,0xFF,0xC0,0xF0,0xFE,0x80,0x04,0xFF,0xF0,0xFF,0xFF,0xC0
             F0 FE 80 04 FF F0 FF
             FF C0
      002057 F0 FC 80 E0 FF 00 00  4727 	.db	0xF0,0xFC,0x80,0xE0,0xFF,0x00,0x00,0x3C,0x80,0x03,0x2A,0x80,0x02,0x00,0x8B,0x88
             3C 80 03 2A 80 02 00
             8B 88
      002067 89 52 21 80 02 00 C7  4728 	.db	0x89,0x52,0x21,0x80,0x02,0x00,0xC7,0x28,0xE8,0x28,0xE7,0x00,0x00,0x87,0xF7,0xF7
             28 E8 28 E7 00 00 87
             F7 F7
      002077 EF DF DF FF 80 FF     4729 	.db	0xEF,0xDF,0xDF,0xFF,0x80,0xFF
                                   4730 ;
                                   4731 ;	RLE WB compressed - Original size= 6144 - Final size= 497
      00207D                       4732 titlescreen_COL:
      00207D 80 03 41 80 FE F4 80  4733 	.db	0x80,0x03,0x41,0x80,0xFE,0xF4,0x80,0xFE,0xF4,0x80,0xFE,0xF4,0x80,0xFE,0xF4,0x80
             FE F4 80 FE F4 80 FE
             F4 80
      00208D BD F4 80 FE 74 80 FE  4734 	.db	0xBD,0xF4,0x80,0xFE,0x74,0x80,0xFE,0x74,0x80,0x8F,0x74,0x80,0x1A,0x34,0x31,0x41
             74 80 8F 74 80 1A 34
             31 41
      00209D 41 80 04 34 31 80 37  4735 	.db	0x41,0x80,0x04,0x34,0x31,0x80,0x37,0x41,0x80,0x04,0x74,0x54,0x74,0x54,0x80,0x97
             41 80 04 74 54 74 54
             80 97
      0020AD 47 80 08 43 80 05 31  4736 	.db	0x47,0x80,0x08,0x43,0x80,0x05,0x31,0x80,0x08,0x43,0x80,0x03,0x31,0x80,0x03,0x43
             80 08 43 80 03 31 80
             03 43
      0020BD 80 03 31 80 3B 43 80  4737 	.db	0x80,0x03,0x31,0x80,0x3B,0x43,0x80,0x07,0x54,0x80,0x97,0x47,0x80,0x0C,0x34,0x31
             07 54 80 97 47 80 0C
             34 31
      0020CD 31 23 80 05 41 C1 23  4738 	.db	0x31,0x23,0x80,0x05,0x41,0xC1,0x23,0x80,0x04,0x34,0x31,0x31,0x32,0x80,0x05,0x43
             80 04 34 31 31 32 80
             05 43
      0020DD 80 39 24 80 07 54 80  4739 	.db	0x80,0x39,0x24,0x80,0x07,0x54,0x80,0x91,0x47,0x80,0x08,0x41,0x80,0x04,0x31,0x80
             91 47 80 08 41 80 04
             31 80
      0020ED 17 23 41 41 80 05 31  4740 	.db	0x17,0x23,0x41,0x41,0x80,0x05,0x31,0x80,0x3F,0x41,0x80,0x8F,0x74,0x80,0x06,0x41
             80 3F 41 80 8F 74 80
             06 41
      0020FD C4 80 02 31 80 02 C3  4741 	.db	0xC4,0x80,0x02,0x31,0x80,0x02,0xC3,0x80,0x06,0x23,0x80,0x14,0x31,0xC3,0xC3,0x80
             80 06 23 80 14 31 C3
             C3 80
      00210D 03 23 80 05 41 80 41  4742 	.db	0x03,0x23,0x80,0x05,0x41,0x80,0x41,0xC4,0x71,0x80,0x84,0x47,0x80,0x07,0xC4,0x80
             C4 71 80 84 47 80 07
             C4 80
      00211D 11 3C 80 17 31 80 04  4743 	.db	0x11,0x3C,0x80,0x17,0x31,0x80,0x04,0xC4,0x2C,0x31,0x31,0x80,0x03,0x41,0x4C,0x4C
             C4 2C 31 31 80 03 41
             4C 4C
      00212D 3C 23 80 04 41 80 B2  4744 	.db	0x3C,0x23,0x80,0x04,0x41,0x80,0xB2,0xC4,0x80,0x03,0x3C,0x80,0x0A,0x23,0x80,0x07
             C4 80 03 3C 80 0A 23
             80 07
      00213D 3C 80 15 23 80 1D C3  4745 	.db	0x3C,0x80,0x15,0x23,0x80,0x1D,0xC3,0x80,0x04,0x23,0x41,0x80,0xAE,0xC4,0x80,0x07
             80 04 23 41 80 AE C4
             80 07
      00214D 31 2C 80 06 C4 80 27  4746 	.db	0x31,0x2C,0x80,0x06,0xC4,0x80,0x27,0xC3,0x80,0x0F,0xC4,0x80,0x07,0x31,0x80,0xAF
             C3 80 0F C4 80 07 31
             80 AF
      00215D C4 23 80 03 C3 80 0A  4747 	.db	0xC4,0x23,0x80,0x03,0xC3,0x80,0x0A,0x4C,0x80,0x27,0xC3,0x80,0x0F,0xC4,0x23,0xC3
             4C 80 27 C3 80 0F C4
             23 C3
      00216D 80 C5 4C 80 15 23 80  4748 	.db	0x80,0xC5,0x4C,0x80,0x15,0x23,0x80,0x11,0x3C,0x4C,0x80,0x06,0xC3,0x80,0x03,0x41
             11 3C 4C 80 06 C3 80
             03 41
      00217D 80 CB C4 80 04 31 23  4749 	.db	0x80,0xCB,0xC4,0x80,0x04,0x31,0x23,0x80,0x02,0xC3,0x23,0x80,0x05,0xC3,0x80,0x0F
             80 02 C3 23 80 05 C3
             80 0F
      00218D C4 31 31 23 80 0C C3  4750 	.db	0xC4,0x31,0x31,0x23,0x80,0x0C,0xC3,0x80,0xAD,0xC4,0x80,0x07,0x64,0x96,0x96,0x80
             80 AD C4 80 07 64 96
             96 80
      00219D 03 41 64 80 02 96 80  4751 	.db	0x03,0x41,0x64,0x80,0x02,0x96,0x80,0x02,0x41,0x64,0x64,0x80,0x02,0x91,0x80,0x02
             02 41 64 64 80 02 91
             80 02
      0021AD C4 61 80 03 69 C3 C2  4752 	.db	0xC4,0x61,0x80,0x03,0x69,0xC3,0xC2,0x46,0x46,0x80,0x03,0x91,0xC3,0x2C,0x61,0x61
             46 46 80 03 91 C3 2C
             61 61
      0021BD 80 03 91 41 41 61 61  4753 	.db	0x80,0x03,0x91,0x41,0x41,0x61,0x61,0x80,0x03,0x91,0x80,0x02,0xC4,0x61,0x61,0x80
             80 03 91 80 02 C4 61
             61 80
      0021CD 02 96 80 0F C3 80 04  4754 	.db	0x02,0x96,0x80,0x0F,0xC3,0x80,0x04,0xC4,0x46,0x69,0x69,0x80,0x05,0x41,0x46,0x69
             C4 46 69 69 80 05 41
             46 69
      0021DD 80 06 41 80 7D 46 80  4755 	.db	0x80,0x06,0x41,0x80,0x7D,0x46,0x80,0x02,0x96,0x41,0x41,0x64,0x80,0x04,0x96,0x64
             02 96 41 41 64 80 04
             96 64
      0021ED 64 80 4D 69 6C 6C 80  4756 	.db	0x64,0x80,0x4D,0x69,0x6C,0x6C,0x80,0x05,0x96,0x9C,0x9C,0x80,0x1D,0x96,0x46,0x80
             05 96 9C 9C 80 1D 96
             46 80
      0021FD 06 69 41 64 80 05 96  4757 	.db	0x06,0x69,0x41,0x64,0x80,0x05,0x96,0x41,0x41,0x64,0x64,0x80,0x03,0x69,0x80,0x03
             41 41 64 64 80 03 69
             80 03
      00220D 41 64 80 02 96 80 05  4758 	.db	0x41,0x64,0x80,0x02,0x96,0x80,0x05,0x41,0x46,0x96,0x80,0x06,0x41,0x80,0x40,0x64
             41 46 96 80 06 41 80
             40 64
      00221D 80 BF 96 41 64 80 05  4759 	.db	0x80,0xBF,0x96,0x41,0x64,0x80,0x05,0x96,0x80,0x02,0x41,0x64,0x64,0x80,0x02,0x96
             96 80 02 41 64 64 80
             02 96
      00222D 80 04 41 46 46 96 80  4760 	.db	0x80,0x04,0x41,0x46,0x46,0x96,0x80,0x06,0x41,0x80,0x20,0x64,0x80,0xCF,0x91,0x80
             06 41 80 20 64 80 CF
             91 80
      00223D 07 69 46 80 06 96 41  4761 	.db	0x07,0x69,0x46,0x80,0x06,0x96,0x41,0x64,0x64,0x80,0x04,0x96,0x80,0x02,0x41,0x80
             64 64 80 04 96 80 02
             41 80
      00224D 02 64 96 96 80 05 41  4762 	.db	0x02,0x64,0x96,0x96,0x80,0x05,0x41,0x80,0x09,0x64,0x80,0xEF,0x91,0x61,0x80,0x06
             80 09 64 80 EF 91 61
             80 06
      00225D 96 41 80 02 64 80 E3  4763 	.db	0x96,0x41,0x80,0x02,0x64,0x80,0xE3,0x96,0x80,0x17,0x79,0xE9,0x80,0x06,0x95,0x80
             96 80 17 79 E9 80 06
             95 80
      00226D FF                    4764 	.db	0xFF
                                   4765 ;	Project: The Alan Random Project (TARP)
                                   4766 ;	SpriteSet Pattern Data - Size:16x16
                                   4767 ;	Sprite range: 0 to 4
                                   4768 ;	RLE WB compressed - Original size= 160 - Compress size= 116
      00226E                       4769 titlescreen_SPRPATTERNS:
      00226E 01 0F 38 60 40 80 04  4770 	.db	0x01,0x0F,0x38,0x60,0x40,0x80,0x04,0xC0,0x40,0x60,0x30,0x18,0x0C,0x06,0xC0,0xF0
             C0 40 60 30 18 0C 06
             C0 F0
      00227E 1C 06 06 80 03 03 02  4771 	.db	0x1C,0x06,0x06,0x80,0x03,0x03,0x02,0x06,0x04,0x08,0x08,0x18,0x18,0x80,0x06,0x03
             06 04 08 08 18 18 80
             06 03
      00228E 02 04 08 10 20 40 40  4772 	.db	0x02,0x04,0x08,0x10,0x20,0x40,0x40,0x80,0x00,0x80,0x00,0x80,0x03,0x08,0x0F,0x08
             80 00 80 00 80 03 08
             0F 08
      00229E 80 09 00 07 1C 30 60  4773 	.db	0x80,0x09,0x00,0x07,0x1C,0x30,0x60,0x40,0x80,0x03,0xC0,0xE0,0x60,0x30,0x18,0x0C
             40 80 03 C0 E0 60 30
             18 0C
      0022AE 04 06 E0 38 0C 04 06  4774 	.db	0x04,0x06,0xE0,0x38,0x0C,0x04,0x06,0x80,0x04,0x03,0x06,0x06,0x0C,0x18,0x10,0x20
             80 04 03 06 06 0C 18
             10 20
      0022BE 03 03 80 02 06 7C 0C  4775 	.db	0x03,0x03,0x80,0x02,0x06,0x7C,0x0C,0x80,0x08,0x00,0x10,0x30,0x80,0x02,0x20,0x60
             80 08 00 10 30 80 02
             20 60
      0022CE 40 40 20 10 08 04 04  4776 	.db	0x40,0x40,0x20,0x10,0x08,0x04,0x04,0x02,0x01,0x01,0x88,0x80,0x02,0x00,0x88,0x80
             02 01 01 88 80 02 00
             88 80
      0022DE 1A 00 80 FF           4777 	.db	0x1A,0x00,0x80,0xFF
                                   4778 ;src\tarp.c:2294: }
                                   4779 ;src\tarp.c:2298: void setTileset(void) __naked
                                   4780 ;	---------------------------------
                                   4781 ; Function setTileset
                                   4782 ; ---------------------------------
      0022E2                       4783 _setTileset::
                                   4784 ;src\tarp.c:2477: __endasm;
      0022E2 21r18r23         [10] 4785 	ld	hl,#TILESET_PAT
      0022E5 11 00 00         [10] 4786 	ld	de,#0x0000
      0022E8 CDr00r00         [17] 4787 	call	unRLEWBVRAM
      0022EB 21r18r23         [10] 4788 	ld	hl,#TILESET_PAT
      0022EE 11 00 08         [10] 4789 	ld	de,#0x0000 + 2048
      0022F1 CDr00r00         [17] 4790 	call	unRLEWBVRAM
      0022F4 21r18r23         [10] 4791 	ld	hl,#TILESET_PAT
      0022F7 11 00 10         [10] 4792 	ld	de,#0x0000 + 4096
      0022FA CDr00r00         [17] 4793 	call	unRLEWBVRAM
      0022FD 21r22r2A         [10] 4794 	ld	hl,#TILESET_COL
      002300 11 00 20         [10] 4795 	ld	de,#0x2000
      002303 CDr00r00         [17] 4796 	call	unRLEWBVRAM
      002306 21r22r2A         [10] 4797 	ld	hl,#TILESET_COL
      002309 11 00 28         [10] 4798 	ld	de,#0x2000 + 2048
      00230C CDr00r00         [17] 4799 	call	unRLEWBVRAM
      00230F 21r22r2A         [10] 4800 	ld	hl,#TILESET_COL
      002312 11 00 30         [10] 4801 	ld	de,#0x2000 + 4096
      002315 C3r00r00         [10] 4802 	jp	unRLEWBVRAM
                                   4803 ;	Project: The Alan Random Project (TARP)
                                   4804 ;	tileset pattern
                                   4805 ;	Tiles range: 0 to 255
                                   4806 ;	RLE WB compressed - Original size= 2048 - Compress size= 1802
                                   4807 ;	main_v4
      002318                       4808 TILESET_PAT:
      002318 FF C1 80 02 9C C1 80  4809 	.db	0xFF,0xC1,0x80,0x02,0x9C,0xC1,0x80,0x02,0xFF,0xE7,0xC7,0xE7,0xE7,0xC3,0x80,0x02
             02 FF E7 C7 E7 E7 C3
             80 02
      002328 FF 81 FC C1 9F 80 00  4810 	.db	0xFF,0x81,0xFC,0xC1,0x9F,0x80,0x00,0x80,0x02,0xFF,0x81,0xFC,0xE1,0xFC,0x81,0x80
             80 02 FF 81 FC E1 FC
             81 80
      002338 02 FF 9C 9C 80 00 FC  4811 	.db	0x02,0xFF,0x9C,0x9C,0x80,0x00,0xFC,0xFC,0x80,0x02,0xFF,0x80,0x00,0x9F,0x81,0xFC
             FC 80 02 FF 80 00 9F
             81 FC
      002348 81 80 02 FF C1 9F 81  4812 	.db	0x81,0x80,0x02,0xFF,0xC1,0x9F,0x81,0x9C,0xC1,0x80,0x02,0xFF,0x80,0x00,0xFC,0xF9
             9C C1 80 02 FF 80 00
             FC F9
      002358 F3 F3 80 02 FF C1 9C  4813 	.db	0xF3,0xF3,0x80,0x02,0xFF,0xC1,0x9C,0xC1,0x9C,0xC1,0x80,0x02,0xFF,0xC1,0x9C,0xC0
             C1 9C C1 80 02 FF C1
             9C C0
      002368 FC C1 80 08 FF 00 80  4814 	.db	0xFC,0xC1,0x80,0x08,0xFF,0x00,0x80,0x02,0xFF,0xC3,0x80,0x03,0xFF,0x3F,0x71,0x77
             02 FF C3 80 03 FF 3F
             71 77
      002378 73 77 77 3F 00 F8 BC  4815 	.db	0x73,0x77,0x77,0x3F,0x00,0xF8,0xBC,0x3C,0xBC,0xBC,0x1C,0xF8,0x00,0xF8,0x3C,0xDC
             3C BC BC 1C F8 00 F8
             3C DC
      002388 BC 7C 1C F8 00 00 63  4816 	.db	0xBC,0x7C,0x1C,0xF8,0x00,0x00,0x63,0x54,0x62,0x51,0x66,0x00,0xFF,0x00,0x72,0x25
             54 62 51 66 00 FF 00
             72 25
      002398 25 27 25 00 FF 00 60  4817 	.db	0x25,0x27,0x25,0x00,0xFF,0x00,0x60,0x50,0x60,0x50,0x60,0x00,0xFF,0x00,0x6E,0x80
             50 60 50 60 00 FF 00
             6E 80
      0023A8 02 84 64 00 FF 00 C8  4818 	.db	0x02,0x84,0x64,0x00,0xFF,0x00,0xC8,0xA8,0xA8,0xC8,0xAE,0x00,0xFF,0x00,0x6A,0x8A
             A8 A8 C8 AE 00 FF 00
             6A 8A
      0023B8 4E 2A CA 00 FF 00 B7  4819 	.db	0x4E,0x2A,0xCA,0x00,0xFF,0x00,0xB7,0xA2,0xB2,0xA2,0xA2,0x00,0xFF,0x00,0x60,0x78
             A2 B2 A2 A2 00 FF 00
             60 78
      0023C8 7E 78 60 80 02 00 80  4820 	.db	0x7E,0x78,0x60,0x80,0x02,0x00,0x80,0x04,0x7E,0x80,0x02,0x00,0x7E,0x63,0x63,0x7E
             04 7E 80 02 00 7E 63
             63 7E
      0023D8 60 80 02 00 80 03 60  4821 	.db	0x60,0x80,0x02,0x00,0x80,0x03,0x60,0x7F,0x80,0x02,0x00,0x3E,0x63,0x63,0x7F,0x63
             7F 80 02 00 3E 63 63
             7F 63
      0023E8 80 02 00 66 66 3C 18  4822 	.db	0x80,0x02,0x00,0x66,0x66,0x3C,0x18,0x18,0x00,0x00,0x80,0x02,0xFF,0x84,0xF5,0x85
             18 00 00 80 02 FF 84
             F5 85
      0023F8 F5 84 80 02 FF 21 BD  4823 	.db	0xF5,0x84,0x80,0x02,0xFF,0x21,0xBD,0xA1,0xBD,0x21,0x80,0x02,0x00,0x80,0x00,0xF7
             A1 BD 21 80 02 00 80
             00 F7
      002408 94 94 F7 80 03 00 B8  4824 	.db	0x94,0x94,0xF7,0x80,0x03,0x00,0xB8,0x24,0x24,0xA4,0x80,0x08,0x00,0x80,0x03,0x0C
             24 24 A4 80 08 00 80
             03 0C
      002418 00 0C 00 00 14 14 80  4825 	.db	0x00,0x0C,0x00,0x00,0x14,0x14,0x80,0x05,0x00,0x14,0x3E,0x14,0x3E,0x14,0x00,0x00
             05 00 14 3E 14 3E 14
             00 00
      002428 08 3E 68 3E 0B 3E 08  4826 	.db	0x08,0x3E,0x68,0x3E,0x0B,0x3E,0x08,0x00,0x00,0x33,0x36,0x0C,0x1B,0x33,0x80,0x02
             00 00 33 36 0C 1B 33
             80 02
      002438 00 38 6C 3D 66 3D 80  4827 	.db	0x00,0x38,0x6C,0x3D,0x66,0x3D,0x80,0x02,0x00,0x18,0x30,0x80,0x04,0x00,0x06,0x80
             02 00 18 30 80 04 00
             06 80
      002448 04 0C 06 00 30 80 04  4828 	.db	0x04,0x0C,0x06,0x00,0x30,0x80,0x04,0x18,0x30,0x00,0x00,0x5A,0x3C,0x7E,0x3C,0x5A
             18 30 00 00 5A 3C 7E
             3C 5A
      002458 80 02 00 18 18 7E 18  4829 	.db	0x80,0x02,0x00,0x18,0x18,0x7E,0x18,0x18,0x80,0x05,0x00,0x18,0x18,0x10,0x80,0x03
             18 80 05 00 18 18 10
             80 03
      002468 00 7E 80 07 00 18 18  4830 	.db	0x00,0x7E,0x80,0x07,0x00,0x18,0x18,0x80,0x02,0x00,0x06,0x0C,0x18,0x30,0x60,0x80
             80 02 00 06 0C 18 30
             60 80
      002478 02 00 3E 80 02 63 3E  4831 	.db	0x02,0x00,0x3E,0x80,0x02,0x63,0x3E,0x80,0x02,0x00,0x18,0x38,0x18,0x18,0x3C,0x80
             80 02 00 18 38 18 18
             3C 80
      002488 02 00 7E 03 3E 60 7F  4832 	.db	0x02,0x00,0x7E,0x03,0x3E,0x60,0x7F,0x80,0x02,0x00,0x7E,0x03,0x1E,0x03,0x7E,0x80
             80 02 00 7E 03 1E 03
             7E 80
      002498 02 00 63 63 7F 03 03  4833 	.db	0x02,0x00,0x63,0x63,0x7F,0x03,0x03,0x80,0x02,0x00,0x7F,0x60,0x7E,0x03,0x7E,0x80
             80 02 00 7F 60 7E 03
             7E 80
      0024A8 02 00 3E 60 7E 63 3E  4834 	.db	0x02,0x00,0x3E,0x60,0x7E,0x63,0x3E,0x80,0x02,0x00,0x7F,0x03,0x06,0x0C,0x0C,0x80
             80 02 00 7F 03 06 0C
             0C 80
      0024B8 02 00 3E 63 3E 63 3E  4835 	.db	0x02,0x00,0x3E,0x63,0x3E,0x63,0x3E,0x80,0x02,0x00,0x3E,0x63,0x3F,0x03,0x3E,0x80
             80 02 00 3E 63 3F 03
             3E 80
      0024C8 02 00 18 18 00 18 18  4836 	.db	0x02,0x00,0x18,0x18,0x00,0x18,0x18,0x80,0x02,0x00,0x18,0x18,0x00,0x18,0x18,0x10
             80 02 00 18 18 00 18
             18 10
      0024D8 00 00 0C 18 30 18 0C  4837 	.db	0x00,0x00,0x0C,0x18,0x30,0x18,0x0C,0x80,0x03,0x00,0x3C,0x00,0x3C,0x80,0x03,0x00
             80 03 00 3C 00 3C 80
             03 00
      0024E8 30 18 0C 18 30 80 02  4838 	.db	0x30,0x18,0x0C,0x18,0x30,0x80,0x02,0x00,0x1E,0x33,0x06,0x0C,0x00,0x0C,0x00,0x3E
             00 1E 33 06 0C 00 0C
             00 3E
      0024F8 41 5D 55 5F 40 3E 00  4839 	.db	0x41,0x5D,0x55,0x5F,0x40,0x3E,0x00,0x3E,0x63,0x63,0x7F,0x63,0x63,0x00,0x00,0x7E
             3E 63 63 7F 63 63 00
             00 7E
      002508 63 7E 63 63 7E 00 00  4840 	.db	0x63,0x7E,0x63,0x63,0x7E,0x00,0x00,0x3F,0x80,0x03,0x60,0x3F,0x00,0x00,0x7E,0x80
             3F 80 03 60 3F 00 00
             7E 80
      002518 03 63 7E 00 00 7F 60  4841 	.db	0x03,0x63,0x7E,0x00,0x00,0x7F,0x60,0x7C,0x60,0x60,0x7F,0x00,0x00,0x7F,0x60,0x7C
             7C 60 60 7F 00 00 7F
             60 7C
      002528 80 02 60 00 00 3F 60  4842 	.db	0x80,0x02,0x60,0x00,0x00,0x3F,0x60,0x60,0x67,0x63,0x3F,0x00,0x00,0x63,0x63,0x7F
             60 67 63 3F 00 00 63
             63 7F
      002538 80 02 63 00 00 80 05  4843 	.db	0x80,0x02,0x63,0x00,0x00,0x80,0x05,0x0C,0x00,0x00,0x80,0x04,0x0C,0x38,0x00,0x00
             0C 00 00 80 04 0C 38
             00 00
      002548 63 66 7C 66 63 63 00  4844 	.db	0x63,0x66,0x7C,0x66,0x63,0x63,0x00,0x00,0x80,0x04,0x60,0x7F,0x00,0x00,0x63,0x77
             00 80 04 60 7F 00 00
             63 77
      002558 7F 6B 63 63 00 00 63  4845 	.db	0x7F,0x6B,0x63,0x63,0x00,0x00,0x63,0x73,0x7B,0x6F,0x67,0x63,0x00,0x00,0x3E,0x80
             73 7B 6F 67 63 00 00
             3E 80
      002568 03 63 3E 00 00 7E 63  4846 	.db	0x03,0x63,0x3E,0x00,0x00,0x7E,0x63,0x63,0x7E,0x60,0x60,0x00,0x00,0x3E,0x63,0x63
             63 7E 60 60 00 00 3E
             63 63
      002578 6B 66 3D 00 00 7E 63  4847 	.db	0x6B,0x66,0x3D,0x00,0x00,0x7E,0x63,0x63,0x7E,0x63,0x63,0x00,0x00,0x3F,0x60,0x3E
             63 7E 63 63 00 00 3F
             60 3E
      002588 03 03 7E 00 00 7E 80  4848 	.db	0x03,0x03,0x7E,0x00,0x00,0x7E,0x80,0x04,0x18,0x00,0x00,0x80,0x04,0x63,0x3E,0x00
             04 18 00 00 80 04 63
             3E 00
      002598 00 80 03 63 36 1C 00  4849 	.db	0x00,0x80,0x03,0x63,0x36,0x1C,0x00,0x00,0x63,0x63,0x6B,0x7F,0x77,0x63,0x00,0x00
             00 63 63 6B 7F 77 63
             00 00
      0025A8 63 36 1C 1C 36 63 00  4850 	.db	0x63,0x36,0x1C,0x1C,0x36,0x63,0x00,0x00,0x80,0x02,0x66,0x3C,0x18,0x18,0x00,0x00
             00 80 02 66 3C 18 18
             00 00
      0025B8 7F 06 0C 18 30 7F 00  4851 	.db	0x7F,0x06,0x0C,0x18,0x30,0x7F,0x00,0x00,0x0E,0x80,0x04,0x0C,0x0E,0x00,0x00,0x60
             00 0E 80 04 0C 0E 00
             00 60
      0025C8 30 18 0C 06 00 00 38  4852 	.db	0x30,0x18,0x0C,0x06,0x00,0x00,0x38,0x80,0x04,0x18,0x38,0x00,0x10,0x38,0x6C,0x80
             80 04 18 38 00 10 38
             6C 80
      0025D8 0A 00 7E 80 09 00 3E  4853 	.db	0x0A,0x00,0x7E,0x80,0x09,0x00,0x3E,0x03,0x3F,0x63,0x7F,0x00,0x00,0x60,0x7E,0x80
             03 3F 63 7F 00 00 60
             7E 80
      0025E8 02 63 7E 80 02 00 3F  4854 	.db	0x02,0x63,0x7E,0x80,0x02,0x00,0x3F,0x80,0x02,0x60,0x3F,0x00,0x00,0x03,0x3F,0x80
             80 02 60 3F 00 00 03
             3F 80
      0025F8 02 63 3F 80 02 00 3E  4855 	.db	0x02,0x63,0x3F,0x80,0x02,0x00,0x3E,0x63,0x7F,0x60,0x3E,0x80,0x02,0x00,0x3E,0x60
             63 7F 60 3E 80 02 00
             3E 60
      002608 78 60 60 80 02 00 3E  4856 	.db	0x78,0x60,0x60,0x80,0x02,0x00,0x3E,0x63,0x63,0x3F,0x03,0x3E,0x00,0x60,0x7E,0x80
             63 63 3F 03 3E 00 60
             7E 80
      002618 03 63 00 00 0C 00 80  4857 	.db	0x03,0x63,0x00,0x00,0x0C,0x00,0x80,0x03,0x0C,0x00,0x00,0x0C,0x00,0x80,0x03,0x0C
             03 0C 00 00 0C 00 80
             03 0C
      002628 38 00 00 66 66 7C 66  4858 	.db	0x38,0x00,0x00,0x66,0x66,0x7C,0x66,0x63,0x00,0x00,0x80,0x05,0x18,0x80,0x02,0x00
             63 00 00 80 05 18 80
             02 00
      002638 7E 80 03 6B 80 02 00  4859 	.db	0x7E,0x80,0x03,0x6B,0x80,0x02,0x00,0x7E,0x80,0x03,0x63,0x80,0x02,0x00,0x3E,0x80
             7E 80 03 63 80 02 00
             3E 80
      002648 02 63 3E 80 02 00 7E  4860 	.db	0x02,0x63,0x3E,0x80,0x02,0x00,0x7E,0x80,0x02,0x63,0x7E,0x60,0x00,0x00,0x3F,0x80
             80 02 63 7E 60 00 00
             3F 80
      002658 02 63 3F 03 00 00 3F  4861 	.db	0x02,0x63,0x3F,0x03,0x00,0x00,0x3F,0x80,0x03,0x60,0x80,0x02,0x00,0x3F,0x60,0x3E
             80 03 60 80 02 00 3F
             60 3E
      002668 03 7E 00 00 18 3E 80  4862 	.db	0x03,0x7E,0x00,0x00,0x18,0x3E,0x80,0x02,0x18,0x0E,0x80,0x02,0x00,0x80,0x03,0x63
             02 18 0E 80 02 00 80
             03 63
      002678 3E 80 02 00 80 02 63  4863 	.db	0x3E,0x80,0x02,0x00,0x80,0x02,0x63,0x36,0x1C,0x80,0x02,0x00,0x63,0x80,0x02,0x6B
             36 1C 80 02 00 63 80
             02 6B
      002688 36 80 02 00 66 3C 18  4864 	.db	0x36,0x80,0x02,0x00,0x66,0x3C,0x18,0x3C,0x66,0x80,0x02,0x00,0x80,0x02,0x63,0x3F
             3C 66 80 02 00 80 02
             63 3F
      002698 03 3E 00 00 7E 0C 18  4865 	.db	0x03,0x3E,0x00,0x00,0x7E,0x0C,0x18,0x30,0x7E,0x80,0x0A,0x00,0x63,0x63,0x7F,0x63
             30 7E 80 0A 00 63 63
             7F 63
      0026A8 63 80 02 00 7F 60 7E  4866 	.db	0x63,0x80,0x02,0x00,0x7F,0x60,0x7E,0x60,0x7F,0x00,0x00,0x80,0x0F,0xE0,0x00,0x78
             60 7F 00 00 80 0F E0
             00 78
      0026B8 7C 7E 7C 78 80 02 00  4867 	.db	0x7C,0x7E,0x7C,0x78,0x80,0x02,0x00,0x3E,0x63,0x7F,0x63,0x63,0x80,0x02,0x00,0x7E
             3E 63 7F 63 63 80 02
             00 7E
      0026C8 63 7E 63 7E 80 02 00  4868 	.db	0x63,0x7E,0x63,0x7E,0x80,0x02,0x00,0x3F,0x80,0x02,0x60,0x3F,0x80,0x02,0x00,0x7E
             3F 80 02 60 3F 80 02
             00 7E
      0026D8 80 02 63 7E 80 02 00  4869 	.db	0x80,0x02,0x63,0x7E,0x80,0x02,0x00,0x7F,0x60,0x7C,0x60,0x7F,0x80,0x02,0x00,0x7F
             7F 60 7C 60 7F 80 02
             00 7F
      0026E8 60 7C 60 60 80 02 00  4870 	.db	0x60,0x7C,0x60,0x60,0x80,0x02,0x00,0x3F,0x60,0x67,0x63,0x3F,0x80,0x02,0x00,0x63
             3F 60 67 63 3F 80 02
             00 63
      0026F8 63 7F 63 63 80 02 00  4871 	.db	0x63,0x7F,0x63,0x63,0x80,0x02,0x00,0x1E,0x80,0x02,0x0C,0x1E,0x80,0x02,0x00,0x1E
             1E 80 02 0C 1E 80 02
             00 1E
      002708 0C 0C 6C 38 80 02 00  4872 	.db	0x0C,0x0C,0x6C,0x38,0x80,0x02,0x00,0x63,0x66,0x7C,0x66,0x63,0x80,0x02,0x00,0x80
             63 66 7C 66 63 80 02
             00 80
      002718 03 60 7F 80 02 00 63  4873 	.db	0x03,0x60,0x7F,0x80,0x02,0x00,0x63,0x77,0x7F,0x6B,0x63,0x80,0x02,0x00,0x63,0x73
             77 7F 6B 63 80 02 00
             63 73
      002728 7B 6F 67 80 02 00 3E  4874 	.db	0x7B,0x6F,0x67,0x80,0x02,0x00,0x3E,0x80,0x02,0x63,0x3E,0x80,0x02,0x00,0x7E,0x63
             80 02 63 3E 80 02 00
             7E 63
      002738 63 7E 60 80 02 00 3E  4875 	.db	0x63,0x7E,0x60,0x80,0x02,0x00,0x3E,0x63,0x6B,0x66,0x3D,0x80,0x02,0x00,0x7E,0x63
             63 6B 66 3D 80 02 00
             7E 63
      002748 63 7E 63 80 02 00 3F  4876 	.db	0x63,0x7E,0x63,0x80,0x02,0x00,0x3F,0x60,0x3E,0x03,0x7E,0x80,0x02,0x00,0x7E,0x80
             60 3E 03 7E 80 02 00
             7E 80
      002758 03 18 80 02 00 80 03  4877 	.db	0x03,0x18,0x80,0x02,0x00,0x80,0x03,0x63,0x3E,0x80,0x02,0x00,0x80,0x02,0x63,0x36
             63 3E 80 02 00 80 02
             63 36
      002768 1C 80 02 00 63 6B 7F  4878 	.db	0x1C,0x80,0x02,0x00,0x63,0x6B,0x7F,0x77,0x63,0x80,0x02,0x00,0x63,0x36,0x1C,0x36
             77 63 80 02 00 63 36
             1C 36
      002778 63 80 02 00 66 66 3C  4879 	.db	0x63,0x80,0x02,0x00,0x66,0x66,0x3C,0x18,0x18,0x80,0x02,0x00,0x7E,0x0C,0x18,0x30
             18 18 80 02 00 7E 0C
             18 30
      002788 7E 80 02 00 18 18 00  4880 	.db	0x7E,0x80,0x02,0x00,0x18,0x18,0x00,0x18,0x18,0x80,0x02,0x00,0xF0,0x92,0x92,0x12
             18 18 80 02 00 F0 92
             92 12
      002798 1E 80 02 00 7C FE BA  4881 	.db	0x1E,0x80,0x02,0x00,0x7C,0xFE,0xBA,0x82,0x82,0x7C,0x00,0x00,0xF0,0x92,0x92,0x12
             82 82 7C 00 00 F0 92
             92 12
      0027A8 1E 80 02 00 7C FE BA  4882 	.db	0x1E,0x80,0x02,0x00,0x7C,0xFE,0xBA,0x82,0x82,0x7C,0x00,0x80,0x04,0xFF,0xFC,0xF8
             82 82 7C 00 80 04 FF
             FC F8
      0027B8 F8 80 04 FF 80 02 00  4883 	.db	0xF8,0x80,0x04,0xFF,0x80,0x02,0x00,0x80,0x04,0xFF,0x3F,0x1F,0x1F,0xF8,0xF8,0xFC
             80 04 FF 3F 1F 1F F8
             F8 FC
      0027C8 FF FF FC F8 F8 80 02  4884 	.db	0xFF,0xFF,0xFC,0xF8,0xF8,0x80,0x02,0x00,0xFF,0xFF,0x80,0x05,0x00,0xFF,0xFF,0x3C
             00 FF FF 80 05 00 FF
             FF 3C
      0027D8 18 18 1F 1F 3F FF FF  4885 	.db	0x18,0x18,0x1F,0x1F,0x3F,0xFF,0xFF,0x3F,0x1F,0x1F,0x80,0x07,0xF8,0x80,0x07,0x1F
             3F 1F 1F 80 07 F8 80
             07 1F
      0027E8 80 09 18 3C FF FF 80  4886 	.db	0x80,0x09,0x18,0x3C,0xFF,0xFF,0x80,0x02,0x00,0x18,0x18,0x38,0xF8,0xF8,0x38,0x18
             02 00 18 18 38 F8 F8
             38 18
      0027F8 18 F8 F8 FC 80 04 FF  4887 	.db	0x18,0xF8,0xF8,0xFC,0x80,0x04,0xFF,0x80,0x02,0x00,0x80,0x04,0xFF,0x1F,0x1F,0x3F
             80 02 00 80 04 FF 1F
             1F 3F
      002808 80 04 FF 18 18 38 80  4888 	.db	0x80,0x04,0xFF,0x18,0x18,0x38,0x80,0x04,0xF8,0x18,0x18,0x1C,0x1F,0x1F,0x1C,0x18
             04 F8 18 18 1C 1F 1F
             1C 18
      002818 18 80 04 FF 3C 18 18  4889 	.db	0x18,0x80,0x04,0xFF,0x3C,0x18,0x18,0x1F,0x1F,0x3F,0xFF,0xFF,0x80,0x02,0x00,0x18
             1F 1F 3F FF FF 80 02
             00 18
      002828 18 3C FF FF 3C 80 03  4890 	.db	0x18,0x3C,0xFF,0xFF,0x3C,0x80,0x03,0x18,0x3C,0x80,0x04,0xFF,0x1F,0x1F,0x3F,0xFF
             18 3C 80 04 FF 1F 1F
             3F FF
      002838 FF 3C 18 18 80 07 FF  4891 	.db	0xFF,0x3C,0x18,0x18,0x80,0x07,0xFF,0x00,0x7E,0x63,0x63,0x7E,0x63,0x80,0x02,0x00
             00 7E 63 63 7E 63 80
             02 00
      002848 63 73 7B 6F 67 80 02  4892 	.db	0x63,0x73,0x7B,0x6F,0x67,0x80,0x02,0x00,0x7E,0x80,0x02,0x63,0x7E,0x00,0x00,0xE0
             00 7E 80 02 63 7E 00
             00 E0
      002858 80 04 F0 E0 00 07 80  4893 	.db	0x80,0x04,0xF0,0xE0,0x00,0x07,0x80,0x04,0x0F,0x07,0x00,0x80,0x02,0x7F,0x41,0x80
             04 0F 07 00 80 02 7F
             41 80
      002868 02 7F 00 80 02 7F 41  4894 	.db	0x02,0x7F,0x00,0x80,0x02,0x7F,0x41,0x80,0x02,0x7F,0x00,0x7F,0x77,0x77,0x41,0x77
             80 02 7F 00 7F 77 77
             41 77
      002878 77 7F 00 7F 77 77 41  4895 	.db	0x77,0x7F,0x00,0x7F,0x77,0x77,0x41,0x77,0x77,0x7F,0x00,0xFF,0x9F,0xE7,0xF9,0xFE
             77 77 7F 00 FF 9F E7
             F9 FE
      002888 FF FF 00 80 03 FF 7F  4896 	.db	0xFF,0xFF,0x00,0x80,0x03,0xFF,0x7F,0x9F,0xFF,0x00,0xFF,0xFF,0xFE,0xF9,0xE7,0x9F
             9F FF 00 FF FF FE F9
             E7 9F
      002898 FF 00 FF 9F 7F 80 03  4897 	.db	0xFF,0x00,0xFF,0x9F,0x7F,0x80,0x03,0xFF,0x00,0xFF,0xBF,0xDF,0xEE,0xF5,0xFB,0xFF
             FF 00 FF BF DF EE F5
             FB FF
      0028A8 00 FF BF 7F 80 03 FF  4898 	.db	0x00,0xFF,0xBF,0x7F,0x80,0x03,0xFF,0x00,0xFF,0xFB,0xF5,0xEE,0xDF,0xBF,0xFF,0x00
             00 FF FB F5 EE DF BF
             FF 00
      0028B8 80 03 FF 7F BF FF 00  4899 	.db	0x80,0x03,0xFF,0x7F,0xBF,0xFF,0x00,0xFF,0x81,0xBD,0xBD,0xFD,0xFC,0xFF,0x00,0x80
             FF 81 BD BD FD FC FF
             00 80
      0028C8 02 FF EF EF 0F FF 00  4900 	.db	0x02,0xFF,0xEF,0xEF,0x0F,0xFF,0x00,0xFF,0xE7,0xDB,0xBD,0xFE,0xFF,0xFF,0x00,0x80
             FF E7 DB BD FE FF FF
             00 80
      0028D8 02 FF EF DF 3F FF 00  4901 	.db	0x02,0xFF,0xEF,0xDF,0x3F,0xFF,0x00,0xFF,0x8F,0xF7,0xFB,0xFD,0xFE,0xFF,0x00,0x80
             FF 8F F7 FB FD FE FF
             00 80
      0028E8 04 FF 3F FF 00 FF BF  4902 	.db	0x04,0xFF,0x3F,0xFF,0x00,0xFF,0xBF,0xDF,0xE0,0x80,0x02,0xFF,0x00,0x80,0x02,0xFF
             DF E0 80 02 FF 00 80
             02 FF
      0028F8 3F DF EF FF 00 80 06  4903 	.db	0x3F,0xDF,0xEF,0xFF,0x00,0x80,0x06,0xFF,0x00,0x7C,0x80,0x04,0x82,0x7C,0x00,0x7C
             FF 00 7C 80 04 82 7C
             00 7C
      002908 80 04 FE 7C 00 7C 80  4904 	.db	0x80,0x04,0xFE,0x7C,0x00,0x7C,0x80,0x04,0xFE,0x7C,0x00,0x7C,0x80,0x04,0xFE,0x7C
             04 FE 7C 00 7C 80 04
             FE 7C
      002918 00 7C 80 04 FE 7C 00  4905 	.db	0x00,0x7C,0x80,0x04,0xFE,0x7C,0x00,0x00,0x6C,0x8A,0xAA,0xAC,0x6A,0x00,0xFF,0x00
             00 6C 8A AA AC 6A 00
             FF 00
      002928 CA AA AE CA 8A 00 FF  4906 	.db	0xCA,0xAA,0xAE,0xCA,0x8A,0x00,0xFF,0x0C,0x14,0x80,0x02,0x64,0x14,0x0C,0x00,0x0C
             0C 14 80 02 64 14 0C
             00 0C
      002938 14 80 02 64 14 0C 00  4907 	.db	0x14,0x80,0x02,0x64,0x14,0x0C,0x00,0x00,0x38,0x80,0x02,0x44,0x38,0x80,0x02,0x00
             00 38 80 02 44 38 80
             02 00
      002948 38 80 02 7C 38 80 02  4908 	.db	0x38,0x80,0x02,0x7C,0x38,0x80,0x02,0x00,0x38,0x80,0x02,0x7C,0x38,0x00,0x00,0x7F
             00 38 80 02 7C 38 00
             00 7F
      002958 80 04 80 7F 00 FE 80  4909 	.db	0x80,0x04,0x80,0x7F,0x00,0xFE,0x80,0x04,0x81,0xFE,0x00,0x00,0x80,0x03,0x54,0x80
             04 81 FE 00 00 80 03
             54 80
      002968 07 00 03 07 1F 00 03  4910 	.db	0x07,0x00,0x03,0x07,0x1F,0x00,0x03,0x0F,0x7F,0x80,0x03,0xFF,0x3F,0x80,0x06,0xFF
             0F 7F 80 03 FF 3F 80
             06 FF
      002978 FC 80 06 FF 00 C0 F0  4911 	.db	0xFC,0x80,0x06,0xFF,0x00,0xC0,0xF0,0xFE,0x80,0x03,0xFF,0x80,0x04,0x00,0xC0,0xE0
             FE 80 03 FF 80 04 00
             C0 E0
      002988 F8 80 02 00 01 01 03  4912 	.db	0xF8,0x80,0x02,0x00,0x01,0x01,0x03,0x07,0x07,0x3F,0x7F,0x80,0x0D,0xFF,0xFC,0xFE
             07 07 3F 7F 80 0D FF
             FC FE
      002998 80 05 FF 80 02 00 80  4913 	.db	0x80,0x05,0xFF,0x80,0x02,0x00,0x80,0x00,0x80,0x00,0xC0,0xE0,0xE0,0x0F,0x80,0x02
             00 80 00 C0 E0 E0 0F
             80 02
      0029A8 1F 3F 3F 7F 7F F0 80  4914 	.db	0x1F,0x3F,0x3F,0x7F,0x7F,0xF0,0x80,0x02,0xF8,0xFC,0xFC,0xFE,0xFE,0x7F,0x7F,0x80
             02 F8 FC FC FE FE 7F
             7F 80
      0029B8 05 FF FE FE 80 0B FF  4915 	.db	0x05,0xFF,0xFE,0xFE,0x80,0x0B,0xFF,0x7F,0x7F,0x80,0x05,0xFF,0xFE,0xFE,0x7F,0x7F
             7F 7F 80 05 FF FE FE
             7F 7F
      0029C8 3F 3F 80 02 1F 0F FE  4916 	.db	0x3F,0x3F,0x80,0x02,0x1F,0x0F,0xFE,0xFE,0xFC,0xFC,0x80,0x02,0xF8,0xF0,0x07,0x07
             FE FC FC 80 02 F8 F0
             07 07
      0029D8 03 01 01 80 02 00 80  4917 	.db	0x03,0x01,0x01,0x80,0x02,0x00,0x80,0x05,0xFF,0x7F,0x3F,0x80,0x05,0xFF,0xFE,0xFC
             05 FF 7F 3F 80 05 FF
             FE FC
      0029E8 E0 E0 C0 80 00 80 00  4918 	.db	0xE0,0xE0,0xC0,0x80,0x00,0x80,0x00,0x80,0x02,0x00,0x1F,0x07,0x03,0x80,0x04,0x00
             80 02 00 1F 07 03 80
             04 00
      0029F8 80 03 FF 7F 0F 03 00  4919 	.db	0x80,0x03,0xFF,0x7F,0x0F,0x03,0x00,0x80,0x06,0xFF,0x3F,0x80,0x06,0xFF,0xFC,0x80
             80 06 FF 3F 80 06 FF
             FC 80
      002A08 03 FF FE F0 C0 00 F8  4920 	.db	0x03,0xFF,0xFE,0xF0,0xC0,0x00,0xF8,0xE0,0xC0,0x80,0x08,0x00,0x7C,0x38,0x10,0x80
             E0 C0 80 08 00 7C 38
             10 80
      002A18 04 00 7C 38 10 80 08  4921 	.db	0x04,0x00,0x7C,0x38,0x10,0x80,0x08,0x00,0x80,0xFF
             00 80 FF
                                   4922 ;	Project: The Alan Random Project (TARP)
                                   4923 ;	tileset color - type:G2
                                   4924 ;	Tiles range: 0 to 255
                                   4925 ;	RLE WB compressed - Original size= 2048 - Compress size= 297
                                   4926 ;	main_v4
      002A22                       4927 TILESET_COL:
      002A22 80 06 2F EF 80 06 2F  4928 	.db	0x80,0x06,0x2F,0xEF,0x80,0x06,0x2F,0xEF,0x80,0x06,0x2F,0xEF,0x80,0x06,0x2F,0xEF
             EF 80 06 2F EF 80 06
             2F EF
      002A32 80 06 2F EF 80 06 2F  4929 	.db	0x80,0x06,0x2F,0xEF,0x80,0x06,0x2F,0xEF,0x80,0x06,0x2F,0xEF,0x80,0x06,0x2F,0xEF
             EF 80 06 2F EF 80 06
             2F EF
      002A42 80 06 2F EF 80 06 2F  4930 	.db	0x80,0x06,0x2F,0xEF,0x80,0x06,0x2F,0xEF,0x80,0x07,0x2E,0x80,0x06,0x2F,0xEF,0x80
             EF 80 07 2E 80 06 2F
             EF 80
      002A52 17 4E 80 37 E4 80 06  4931 	.db	0x17,0x4E,0x80,0x37,0xE4,0x80,0x06,0xF4,0xFE,0x80,0x06,0xF4,0xFE,0x80,0x06,0xF4
             F4 FE 80 06 F4 FE 80
             06 F4
      002A62 FE 80 06 F4 FE 80 06  4932 	.db	0xFE,0x80,0x06,0xF4,0xFE,0x80,0x06,0xF4,0xFE,0x80,0x06,0xF4,0xFE,0x80,0x0F,0x1E
             F4 FE 80 06 F4 FE 80
             0F 1E
      002A72 80 0F 41 80 FE 1E 80  4933 	.db	0x80,0x0F,0x41,0x80,0xFE,0x1E,0x80,0xFE,0x1E,0x80,0xD9,0x1E,0x80,0x06,0xF4,0xFE
             FE 1E 80 D9 1E 80 06
             F4 FE
      002A82 80 06 F4 FE 80 06 F4  4934 	.db	0x80,0x06,0xF4,0xFE,0x80,0x06,0xF4,0xFE,0x80,0x07,0x45,0x80,0x07,0x75,0x80,0x07
             FE 80 07 45 80 07 75
             80 07
      002A92 8E 80 E7 DE 80 0F D1  4935 	.db	0x8E,0x80,0xE7,0xDE,0x80,0x0F,0xD1,0x80,0xB7,0x5E,0x80,0x06,0xF4,0xFE,0x80,0x06
             80 B7 5E 80 06 F4 FE
             80 06
      002AA2 F4 FE 80 06 F4 FE 80  4936 	.db	0xF4,0xFE,0x80,0x06,0xF4,0xFE,0x80,0x17,0x4E,0x80,0x07,0xDE,0x80,0x07,0x4E,0x80
             17 4E 80 07 DE 80 07
             4E 80
      002AB2 07 DE FE 80 05 F4 80  4937 	.db	0x07,0xDE,0xFE,0x80,0x05,0xF4,0x80,0x04,0xFE,0x80,0x02,0xF4,0x80,0x02,0xFE,0x80
             04 FE 80 02 F4 80 02
             FE 80
      002AC2 04 F4 FE FE 80 05 F4  4938 	.db	0x04,0xF4,0xFE,0xFE,0x80,0x05,0xF4,0xFE,0xFE,0x80,0x05,0xF4,0xFE,0xFE,0x80,0x05
             FE FE 80 05 F4 FE FE
             80 05
      002AD2 F4 FE FE 80 05 F4 80  4939 	.db	0xF4,0xFE,0xFE,0x80,0x05,0xF4,0x80,0x04,0xFE,0x80,0x02,0xF4,0xFE,0xFE,0x80,0x05
             04 FE 80 02 F4 FE FE
             80 05
      002AE2 F4 80 03 FE 80 03 F4  4940 	.db	0xF4,0x80,0x03,0xFE,0x80,0x03,0xF4,0xFE,0xFE,0x80,0x05,0xF4,0x80,0x03,0xFE,0x80
             FE FE 80 05 F4 80 03
             FE 80
      002AF2 03 F4 FE FE 80 05 F4  4941 	.db	0x03,0xF4,0xFE,0xFE,0x80,0x05,0xF4,0x80,0x05,0xFE,0xF4,0xF4,0xFE,0xFE,0x80,0x05
             80 05 FE F4 F4 FE FE
             80 05
      002B02 F4 80 03 FE 80 03 F4  4942 	.db	0xF4,0x80,0x03,0xFE,0x80,0x03,0xF4,0x80,0x08,0xFE,0x80,0x07,0x41,0x80,0x07,0xC1
             80 08 FE 80 07 41 80
             07 C1
      002B12 80 07 81 80 07 71 80  4943 	.db	0x80,0x07,0x81,0x80,0x07,0x71,0x80,0x07,0xF1,0x80,0x0F,0xE4,0x80,0x07,0x5E,0x80
             07 F1 80 0F E4 80 07
             5E 80
      002B22 07 3E 80 07 1E 80 07  4944 	.db	0x07,0x3E,0x80,0x07,0x1E,0x80,0x07,0xCE,0x80,0x07,0x9E,0x15,0x80,0x04,0x1C,0x15
             CE 80 07 9E 15 80 04
             1C 15
      002B32 FE 15 80 04 18 15 FE  4945 	.db	0xFE,0x15,0x80,0x04,0x18,0x15,0xFE,0x80,0x06,0x51,0xFE,0x80,0xE7,0x61,0x80,0x07
             80 06 51 FE 80 E7 61
             80 07
      002B42 71 80 07 41 80 07 61  4946 	.db	0x71,0x80,0x07,0x41,0x80,0x07,0x61,0x80,0xFF
             80 FF
                                   4947 ;src\tarp.c:2478: }
                                   4948 ;src\tarp.c:2485: void setSprites(void) __naked
                                   4949 ;	---------------------------------
                                   4950 ; Function setSprites
                                   4951 ; ---------------------------------
      002B4B                       4952 _setSprites::
                                   4953 ;src\tarp.c:2512: __endasm;
      002B4B 21r54r2B         [10] 4954 	ld	HL,#SPRITES_DATA
      002B4E 11 00 38         [10] 4955 	ld	DE,#0x3800
      002B51 C3r00r00         [10] 4956 	jp	unRLEWBVRAM
                                   4957 ;	Project: The Alan Random Project (TARP)
                                   4958 ;	SpriteSet Pattern Data - Size:16x16
                                   4959 ;	Sprite range: 0 to 7
                                   4960 ;	RLE WB compressed - Original size= 256 - Compress size= 184
      002B54                       4961 SPRITES_DATA:
      002B54 80 06 00 01 01 80 0D  4962 	.db	0x80,0x06,0x00,0x01,0x01,0x80,0x0D,0x00,0x80,0x00,0x80,0x00,0x80,0x0C,0x00,0x01
             00 80 00 80 00 80 0C
             00 01
      002B64 03 03 01 80 0B 00 80  4963 	.db	0x03,0x03,0x01,0x80,0x0B,0x00,0x80,0x00,0xC0,0xC0,0x80,0x00,0x80,0x0A,0x00,0x01
             00 C0 C0 80 00 80 0A
             00 01
      002B74 03 07 07 03 01 80 09  4964 	.db	0x03,0x07,0x07,0x03,0x01,0x80,0x09,0x00,0x80,0x00,0xC0,0xE0,0xE0,0xC0,0x80,0x00
             00 80 00 C0 E0 E0 C0
             80 00
      002B84 80 08 00 03 07 80 03  4965 	.db	0x80,0x08,0x00,0x03,0x07,0x80,0x03,0x0F,0x07,0x03,0x80,0x07,0x00,0xC0,0xE0,0x80
             0F 07 03 80 07 00 C0
             E0 80
      002B94 03 F0 E0 C0 80 06 00  4966 	.db	0x03,0xF0,0xE0,0xC0,0x80,0x06,0x00,0x01,0x07,0x0F,0x0F,0x1F,0x1F,0x0F,0x0F,0x07
             01 07 0F 0F 1F 1F 0F
             0F 07
      002BA4 01 80 05 00 80 00 E0  4967 	.db	0x01,0x80,0x05,0x00,0x80,0x00,0xE0,0xF0,0xF0,0xF8,0xF8,0xF0,0xF0,0xE0,0x80,0x00
             F0 F0 F8 F8 F0 F0 E0
             80 00
      002BB4 80 04 00 03 0F 1F 1F  4968 	.db	0x80,0x04,0x00,0x03,0x0F,0x1F,0x1F,0x80,0x03,0x3F,0x1F,0x1F,0x0F,0x03,0x80,0x03
             80 03 3F 1F 1F 0F 03
             80 03
      002BC4 00 C0 F0 F8 F8 80 03  4969 	.db	0x00,0xC0,0xF0,0xF8,0xF8,0x80,0x03,0xFC,0xF8,0xF8,0xF0,0xC0,0x80,0x02,0x00,0x03
             FC F8 F8 F0 C0 80 02
             00 03
      002BD4 0F 1F 3F 3F 80 03 7F  4970 	.db	0x0F,0x1F,0x3F,0x3F,0x80,0x03,0x7F,0x3F,0x3F,0x1F,0x0F,0x03,0x00,0x00,0xC0,0xF0
             3F 3F 1F 0F 03 00 00
             C0 F0
      002BE4 F8 FC FC 80 03 FE FC  4971 	.db	0xF8,0xFC,0xFC,0x80,0x03,0xFE,0xFC,0xFC,0xF8,0xF0,0xC0,0x00,0x07,0x1F,0x3F,0x7F
             FC F8 F0 C0 00 07 1F
             3F 7F
      002BF4 7F 80 05 FF 7F 7F 3F  4972 	.db	0x7F,0x80,0x05,0xFF,0x7F,0x7F,0x3F,0x1F,0x07,0xE0,0xF8,0xFC,0xFE,0xFE,0x80,0x05
             1F 07 E0 F8 FC FE FE
             80 05
      002C04 FF FE FE FC F8 E0 80  4973 	.db	0xFF,0xFE,0xFE,0xFC,0xF8,0xE0,0x80,0xFF
             FF
                                   4974 ;src\tarp.c:2513: }
                                   4975 ;src\tarp.c:2519: void showMainScr(void) __naked
                                   4976 ;	---------------------------------
                                   4977 ; Function showMainScr
                                   4978 ; ---------------------------------
      002C0C                       4979 _showMainScr::
                                   4980 ;src\tarp.c:2559: __endasm;
      002C0C 21r15r2C         [10] 4981 	ld	HL,#SCR01
      002C0F 11 00 18         [10] 4982 	ld	DE,#0x1800
      002C12 C3r00r00         [10] 4983 	jp	unRLEWBVRAM
                                   4984 ;	Project: The Alan Random Project (TARP)
                                   4985 ;	map size width:32 height:24
                                   4986 ;	RLE WB compressed - Original size= 768 - Compress size= 397
                                   4987 ;	main_v4_6
      002C15                       4988 SCR01:
      002C15 A0 80 09 A1 A2 80 0F  4989 	.db	0xA0,0x80,0x09,0xA1,0xA2,0x80,0x0F,0xFF,0x1C,0x1D,0x1E,0x1F,0xA7,0x20,0x93,0x8F
             FF 1C 1D 1E 1F A7 20
             93 8F
      002C25 8E 87 80 04 20 A8 80  4990 	.db	0x8E,0x87,0x80,0x04,0x20,0xA8,0x80,0x13,0xFF,0xA7,0x80,0x02,0x20,0xBB,0x10,0x11
             13 FF A7 80 02 20 BB
             10 11
      002C35 B7 B8 B9 BA A8 80 13  4991 	.db	0xB7,0xB8,0xB9,0xBA,0xA8,0x80,0x13,0xFF,0xA7,0x80,0x02,0x20,0xBB,0x7B,0x18,0x19
             FF A7 80 02 20 BB 7B
             18 19
      002C45 1A 1B BA A8 80 13 FF  4992 	.db	0x1A,0x1B,0xBA,0xA8,0x80,0x13,0xFF,0xA7,0x20,0xDA,0x41,0x20,0xDA,0x42,0x20,0xBB
             A7 20 DA 41 20 DA 42
             20 BB
      002C55 0F BA A8 80 13 FF A7  4993 	.db	0x0F,0xBA,0xA8,0x80,0x13,0xFF,0xA7,0x20,0x43,0x6F,0x70,0x79,0x20,0xBB,0xD6,0xD7
             20 43 6F 70 79 20 BB
             D6 D7
      002C65 BA A8 80 13 FF A7 20  4994 	.db	0xBA,0xA8,0x80,0x13,0xFF,0xA7,0x20,0x53,0x70,0x65,0x65,0x64,0x20,0x20,0xBC,0xBE
             53 70 65 65 64 20 20
             BC BE
      002C75 A8 80 13 FF A3 80 09  4995 	.db	0xA8,0x80,0x13,0xFF,0xA3,0x80,0x09,0xA4,0xA6,0x80,0x06,0xFF,0xE0,0xE1,0xE2,0xE3
             A4 A6 80 06 FF E0 E1
             E2 E3
      002C85 E4 E5 80 06 FF A7 20  4996 	.db	0xE4,0xE5,0x80,0x06,0xFF,0xA7,0x20,0x92,0x88,0x99,0x94,0x88,0x8D,0x0C,0x0D,0xD8
             92 88 99 94 88 8D 0C
             0D D8
      002C95 A8 80 05 FF E6 E7 80  4997 	.db	0xA8,0x80,0x05,0xFF,0xE6,0xE7,0x80,0x03,0xE8,0xE9,0xEA,0x80,0x05,0xFF,0xA7,0x80
             03 E8 E9 EA 80 05 FF
             A7 80
      002CA5 02 20 BB 12 13 B7 B8  4998 	.db	0x02,0x20,0xBB,0x12,0x13,0xB7,0xB8,0xB9,0xBA,0xA8,0x80,0x05,0xFF,0xEB,0x80,0x05
             B9 BA A8 80 05 FF EB
             80 05
      002CB5 E8 EC 80 05 FF A7 20  4999 	.db	0xE8,0xEC,0x80,0x05,0xFF,0xA7,0x20,0x4B,0x69,0x74,0x80,0x03,0x20,0xDF,0xDE,0xA8
             4B 69 74 80 03 20 DF
             DE A8
      002CC5 80 05 FF ED 80 05 E8  5000 	.db	0x80,0x05,0xFF,0xED,0x80,0x05,0xE8,0xEE,0x80,0x05,0xFF,0xA3,0x80,0x09,0xA4,0xA6
             EE 80 05 FF A3 80 09
             A4 A6
      002CD5 80 05 FF EF 80 05 E8  5001 	.db	0x80,0x05,0xFF,0xEF,0x80,0x05,0xE8,0xF0,0x80,0x05,0xFF,0xA7,0x20,0x8D,0x85,0x8C
             F0 80 05 FF A7 20 8D
             85 8C
      002CE5 8F 84 99 0C 0E D8 A8  5002 	.db	0x8F,0x84,0x99,0x0C,0x0E,0xD8,0xA8,0x80,0x05,0xFF,0xF1,0x80,0x05,0xE8,0xF2,0x80
             80 05 FF F1 80 05 E8
             F2 80
      002CF5 05 FF A7 80 02 20 BB  5003 	.db	0x05,0xFF,0xA7,0x80,0x02,0x20,0xBB,0x14,0x15,0xB7,0xB8,0xB9,0xBA,0xA8,0x80,0x05
             14 15 B7 B8 B9 BA A8
             80 05
      002D05 FF F3 F4 80 03 E8 F5  5004 	.db	0xFF,0xF3,0xF4,0x80,0x03,0xE8,0xF5,0xF6,0x80,0x05,0xFF,0xA7,0x20,0x41,0x2B,0x42
             F6 80 05 FF A7 20 41
             2B 42
      002D15 80 03 20 DF DE A8 80  5005 	.db	0x80,0x03,0x20,0xDF,0xDE,0xA8,0x80,0x06,0xFF,0xF7,0xF8,0xF9,0xFA,0xFB,0xFC,0x80
             06 FF F7 F8 F9 FA FB
             FC 80
      002D25 06 FF A7 20 4F 66 66  5006 	.db	0x06,0xFF,0xA7,0x20,0x4F,0x66,0x66,0x73,0x80,0x02,0x20,0xBC,0xBE,0xA8,0x80,0x13
             73 80 02 20 BC BE A8
             80 13
      002D35 FF A7 20 45 6E 76 80  5007 	.db	0xFF,0xA7,0x20,0x45,0x6E,0x76,0x80,0x03,0x20,0xBC,0xBE,0xA8,0x80,0x13,0xFF,0xA7
             03 20 BC BE A8 80 13
             FF A7
      002D45 20 4C 6F 6F 70 80 02  5008 	.db	0x20,0x4C,0x6F,0x6F,0x70,0x80,0x02,0x20,0xDF,0xDE,0xA8,0x80,0x13,0xFF,0xA7,0x80
             20 DF DE A8 80 13 FF
             A7 80
      002D55 09 20 A8 80 13 FF A7  5009 	.db	0x09,0x20,0xA8,0x80,0x13,0xFF,0xA7,0x20,0x4F,0x63,0x74,0x61,0x76,0x65,0x20,0xBC
             20 4F 63 74 61 76 65
             20 BC
      002D65 BE A8 80 13 FF A7 20  5010 	.db	0xBE,0xA8,0x80,0x13,0xFF,0xA7,0x20,0x44,0x6F,0x77,0x6E,0x2F,0x55,0x70,0xBC,0xBE
             44 6F 77 6E 2F 55 70
             BC BE
      002D75 A8 80 13 FF A3 80 09  5011 	.db	0xA8,0x80,0x13,0xFF,0xA3,0x80,0x09,0xA4,0xA6,0x80,0x13,0xFF,0xA7,0x80,0x02,0x20
             A4 A6 80 13 FF A7 80
             02 20
      002D85 BB 7B 7C 7D 19 18 BA  5012 	.db	0xBB,0x7B,0x7C,0x7D,0x19,0x18,0xBA,0xA8,0xFF,0x9F,0x80,0x0F,0xD1,0xFF,0xFF,0xAC
             A8 FF 9F 80 0F D1 FF
             FF AC
      002D95 80 09 AD AE FF 9E 80  5013 	.db	0x80,0x09,0xAD,0xAE,0xFF,0x9E,0x80,0x0F,0xD1,0xFF,0xFF,0x80,0xFF
             0F D1 FF FF 80 FF
                                   5014 ;src\tarp.c:2560: }
                                   5015 ;src\tarp.c:2565: void showHelpScr(void) __naked
                                   5016 ;	---------------------------------
                                   5017 ; Function showHelpScr
                                   5018 ; ---------------------------------
      002DA2                       5019 _showHelpScr::
                                   5020 ;src\tarp.c:2590: __endasm;
      002DA2 21rABr2D         [10] 5021 	ld	HL,#SCR02
      002DA5 11 00 18         [10] 5022 	ld	DE,#0x1800
      002DA8 C3r00r00         [10] 5023 	jp	unRLEWBVRAM
                                   5024 ;	Project: The Alan Random Project (TARP)
                                   5025 ;	map size width:32 height:24
                                   5026 ;	RLE WB compressed - Original size= 768 - Compress size= 163
      002DAB                       5027 SCR02:
      002DAB A0 80 13 A1 B1 80 07  5028 	.db	0xA0,0x80,0x13,0xA1,0xB1,0x80,0x07,0xA1,0xA2,0xB6,0xA7,0x88,0x85,0x8C,0x90,0x80
             A1 A2 B6 A7 88 85 8C
             90 80
      002DBB 0F 20 A9 96 80 06 20  5029 	.db	0x0F,0x20,0xA9,0x96,0x80,0x06,0x20,0xA8,0xB6,0xA3,0x80,0x13,0xA4,0xAA,0x80,0x07
             A8 B6 A3 80 13 A4 AA
             80 07
      002DCB A4 A6 B6 A7 80 1C 20  5030 	.db	0xA4,0xA6,0xB6,0xA7,0x80,0x1C,0x20,0xA8,0x7E,0xA7,0x80,0x1C,0x20,0xA8,0x7E,0xA7
             A8 7E A7 80 1C 20 A8
             7E A7
      002DDB 80 1C 20 A8 7E A7 80  5031 	.db	0x80,0x1C,0x20,0xA8,0x7E,0xA7,0x80,0x1C,0x20,0xA8,0x7E,0xA7,0x80,0x1C,0x20,0xA8
             1C 20 A8 7E A7 80 1C
             20 A8
      002DEB 7E A7 80 1C 20 A8 7E  5032 	.db	0x7E,0xA7,0x80,0x1C,0x20,0xA8,0x7E,0xA7,0x80,0x1C,0x20,0xA8,0x7E,0xA7,0x80,0x1C
             A7 80 1C 20 A8 7E A7
             80 1C
      002DFB 20 A8 7E A7 80 1C 20  5033 	.db	0x20,0xA8,0x7E,0xA7,0x80,0x1C,0x20,0xA8,0x7E,0xA7,0x80,0x1C,0x20,0xA8,0x7E,0xA7
             A8 7E A7 80 1C 20 A8
             7E A7
      002E0B 80 1C 20 A8 7E A7 80  5034 	.db	0x80,0x1C,0x20,0xA8,0x7E,0xA7,0x80,0x1C,0x20,0xA8,0x7E,0xA7,0x80,0x1C,0x20,0xA8
             1C 20 A8 7E A7 80 1C
             20 A8
      002E1B 7E A7 80 1C 20 A8 7E  5035 	.db	0x7E,0xA7,0x80,0x1C,0x20,0xA8,0x7E,0xA7,0x80,0x1C,0x20,0xA8,0x7E,0xA7,0x80,0x1C
             A7 80 1C 20 A8 7E A7
             80 1C
      002E2B 20 A8 7E A7 80 1C 20  5036 	.db	0x20,0xA8,0x7E,0xA7,0x80,0x1C,0x20,0xA8,0x7E,0xA7,0x80,0x1C,0x20,0xA8,0x7E,0xA7
             A8 7E A7 80 1C 20 A8
             7E A7
      002E3B 80 1C 20 A8 7E A7 80  5037 	.db	0x80,0x1C,0x20,0xA8,0x7E,0xA7,0x80,0x1C,0x20,0xA8,0x7E,0xAC,0x80,0x1C,0xAD,0xAE
             1C 20 A8 7E AC 80 1C
             AD AE
      002E4B B6 80 FF              5038 	.db	0xB6,0x80,0xFF
                                   5039 ;src\tarp.c:2591: }
                                   5040 ;src\tarp.c:2599: void SetPalette(char number) __naked
                                   5041 ;	---------------------------------
                                   5042 ; Function SetPalette
                                   5043 ; ---------------------------------
      002E4E                       5044 _SetPalette::
                                   5045 ;src\tarp.c:2692: __endasm;
      002E4E FD 21r6Dr2E      [14] 5046 	ld	IY,#palIndex
      002E52 87               [ 4] 5047 	add	A
      002E53 5F               [ 4] 5048 	ld	E,A
      002E54 16 00            [ 7] 5049 	ld	D,#0
      002E56 FD 19            [15] 5050 	add	IY,DE
      002E58 FD 66 01         [19] 5051 	ld	H,1(IY)
      002E5B FD 6E 00         [19] 5052 	ld	L,(IY)
      002E5E                       5053 SetV9938Palette:
      002E5E AF               [ 4] 5054 	xor	A
      002E5F F3               [ 4] 5055 	di
      002E60 D3 99            [11] 5056 	out	(#0x99),A
      002E62 3E 90            [ 7] 5057 	ld	A,#144
      002E64 D3 99            [11] 5058 	out	(#0x99),A
      002E66 01 9A 20         [10] 5059 	ld	BC,#0x209A
      002E69 ED B3            [21] 5060 	otir
      002E6B FB               [ 4] 5061 	ei
      002E6C C9               [10] 5062 	ret
      002E6D                       5063 palIndex:
      002E6Dr73r2Er93r2ErB3r2E     5064 	.dw	TITLE_PAL,MAIN_PAL,HELP_PAL
                                   5065 ;	RB,G
      002E73                       5066 TITLE_PAL:
      002E73 00 00                 5067 	.db	0x00,0x00
      002E75 00 00                 5068 	.db	0x00,0x00
      002E77 01 06                 5069 	.db	0x01,0x06
      002E79 03 07                 5070 	.db	0x03,0x07
      002E7B 24 03                 5071 	.db	0x24,0x03
      002E7D 27 03                 5072 	.db	0x27,0x03
      002E7F 51 01                 5073 	.db	0x51,0x01
      002E81 27 06                 5074 	.db	0x27,0x06
      002E83 71 01                 5075 	.db	0x71,0x01
      002E85 73 03                 5076 	.db	0x73,0x03
      002E87 61 06                 5077 	.db	0x61,0x06
      002E89 64 06                 5078 	.db	0x64,0x06
      002E8B 01 05                 5079 	.db	0x01,0x05
      002E8D 65 02                 5080 	.db	0x65,0x02
      002E8F 55 05                 5081 	.db	0x55,0x05
      002E91 77 07                 5082 	.db	0x77,0x07
                                   5083 ;	RB,G
      002E93                       5084 MAIN_PAL:
      002E93 00 00                 5085 	.db	0x00,0x00
      002E95 00 00                 5086 	.db	0x00,0x00
      002E97 44 04                 5087 	.db	0x44,0x04
      002E99 33 07                 5088 	.db	0x33,0x07
      002E9B 17 03                 5089 	.db	0x17,0x03
      002E9D 33 03                 5090 	.db	0x33,0x03
      002E9F 61 01                 5091 	.db	0x61,0x01
      002EA1 27 06                 5092 	.db	0x27,0x06
      002EA3 71 01                 5093 	.db	0x71,0x01
      002EA5 73 03                 5094 	.db	0x73,0x03
      002EA7 61 06                 5095 	.db	0x61,0x06
      002EA9 64 06                 5096 	.db	0x64,0x06
      002EAB 11 04                 5097 	.db	0x11,0x04
      002EAD 65 02                 5098 	.db	0x65,0x02
      002EAF 66 06                 5099 	.db	0x66,0x06
      002EB1 77 07                 5100 	.db	0x77,0x07
      002EB3                       5101 HELP_PAL:
      002EB3 00 00                 5102 	.db	0x00,0x00
      002EB5 00 00                 5103 	.db	0x00,0x00
      002EB7 44 04                 5104 	.db	0x44,0x04
      002EB9 33 07                 5105 	.db	0x33,0x07
      002EBB 33 03                 5106 	.db	0x33,0x03
      002EBD 37 04                 5107 	.db	0x37,0x04
      002EBF 61 01                 5108 	.db	0x61,0x01
      002EC1 47 06                 5109 	.db	0x47,0x06
      002EC3 71 01                 5110 	.db	0x71,0x01
      002EC5 73 03                 5111 	.db	0x73,0x03
      002EC7 61 06                 5112 	.db	0x61,0x06
      002EC9 64 06                 5113 	.db	0x64,0x06
      002ECB 11 04                 5114 	.db	0x11,0x04
      002ECD 65 02                 5115 	.db	0x65,0x02
      002ECF 66 06                 5116 	.db	0x66,0x06
      002ED1 77 07                 5117 	.db	0x77,0x07
                                   5118 ;src\tarp.c:2693: }
                                   5119 	.area _CODE
                                   5120 	.area _INITIALIZER
                                   5121 	.area _CABS (ABS)
